文件：Initial.c    编译器版本 HGASM 0202 页次1


   1  0000              ; Generated by holtek-gcc v3.18, Mon May 06 15:41:34 2019
   2  0000              ; 
   3  0000              ; Configuration:
   4  0000              ;       with long instruction
   5  0000              ;       Single ROM, Multi-RAM
   6  0000              ;       bits_per_rom_unit:16
   7  0000              ;       with mp1
   8  0000              ;       with tbhp, address(0x9)
   9  0000              ;          Use tabrd-const
  10  0000              ;       
  11  0000              ; SFR address of long-instruction arch:
  12  0000              ;    mp0 = -1,1,0
  13  0000              ;    mp1 = 4,3,2
  14  0000              ;    mp2 = 14,13,12
  15  0000              ;    tbp = 9,7,8
  16  0000              ;    acc = 5
  17  0000              ;    pcl = 6
  18  0000              ;    status = 10
  19  0000              ;    bp = 11
  20  0000              ;    intc = 16
  21  0000              ;       
  22  0000              ;       
  23  0000              ; use 'tabrdc' instead of 'tabrd'
  24  0000              ;       
  25  0000              
  26  0000              #pragma translator "holtek-gcc 4.6.4" "3.18" "build 20130711"
  27  0000              ; Rebuild 828
  28  0000              
  29  0000              ir equ [2]
  30  0000              mp equ [3]
  31  0000              sbp equ [4]
  32  0000              acc equ [5]
  33  0000              bp equ [11]
  34  0000              tblp equ [7]
  35  0000              tbhp equ [9]
  36  0000              status equ [10]
  37  0000              c equ [10].0
  38  0000              ac equ [10].1
  39  0000              z equ [10].2
  40  0000              ov equ [10].3
  41  0000              cz equ [10].6
  42  0000              sc equ [10].7
  43  0000              intc equ [16]
  44  0000              
  45  0000              extern ra:byte
  46  0000              extern rb:byte
  47  0000              extern rc:byte
  48  0000              extern rd:byte
  49  0000              extern re:byte
  50  0000              extern rf:byte
  51  0000              extern rg:byte
  52  0000              extern rh:byte
  53  0000              extern _Crom2Prom:near
  54  0000              extern _Crom2PromNext:near
  55  0000              
  56  0000              RAMBANK 0 @BITDATASEC, @BITDATASEC1
  57  0000              @HCCINIT	.section 'data'
  58  0000              @HCCINIT0	.section 'data'
  59  0000              @BITDATASEC	 .section 'data'
文件：Initial.ASM  编译器版本 HGASM 0202 页次2

  60  0000              @BITDATASEC1	 .section 'data'
  61  0000              
  62  0000              #pragma debug scope 1 1
  63  0000              	extern __DELAY3:near
  64  0000              	extern __DELAYX3:near
  65  0000              	extern __DELAYX6:near
  66  0000              	extern __DELAYY5:near
  67  0000              	extern __DELAYY3:near
  68  0000              	extern _builtin_holtek_delay_2:byte
  69  0000              ___opac0 equ [122]
  70  0000              public _Sub_CMPx_Calibration
  71  0000              #pragma debug scope 2 1

  12  0000              #line 12 "C:\Users\Administrator\Desktop\QQ 接收文件\NW2018_16NSOP DEMOCODE for佳点1\NW2018_16NSOP DEMOCODE\Source\Initial.c"
  12  0000              _Sub_CMPx_Calibration .section 'code'
  12  0000              _Sub_CMPx_Calibration proc
  12  0000              public _Sub_CMPx_Calibration_2
  12  0000  0008[           local _Sub_CMPx_Calibration_2 db 8 dup(?)	; 3,5
            00
            ]
  12  0008              #pragma debug pointer 42 8 2
  12  0008              #pragma debug pointer 42 8 2
  12  0008              #pragma debug variable 42 2 _Sub_CMPx_Calibration_2+0 "pCMPCx"
  12  0008              #pragma debug variable 8 2 _Sub_CMPx_Calibration_2+2 "mode"
  12  0008              #pragma debug variable 8 2 _Sub_CMPx_Calibration_2+6 "r_Value_AOF_L"
  12  0008              #pragma debug variable 8 2 _Sub_CMPx_Calibration_2+5 "r_Value_AOF_H"
  12  0008              #pragma debug variable 8 2 _Sub_CMPx_Calibration_2+4 "r_CMPX_CnCX"
  12  0008              #pragma debug variable 8 2 _Sub_CMPx_Calibration_2+3 "r_MaxValue"
  12  0000              _L2:
  12  0000              _L14:
  12  0000  0700     R  	mov a,_Sub_CMPx_Calibration_2[0]
  12  0001  0080     E  	mov rb,a
  12  0002  0700     R  	mov a,_Sub_CMPx_Calibration_2[1]
  12  0003  0080     E  	mov rc,a
  29  0004              #line 29 "C:\Users\Administrator\Desktop\QQ 接收文件\NW2018_16NSOP DEMOCODE for佳点1\NW2018_16NSOP DEMOCODE\Source\Initial.c"
  29  0004  0700     E  	mov a,rb
  29  0005  0083        	mov mp,a
  29  0006  0700     E  	mov a,rc
  29  0007  0084        	mov sbp,a
  26  0008              #line 26 "C:\Users\Administrator\Desktop\QQ 接收文件\NW2018_16NSOP DEMOCODE for佳点1\NW2018_16NSOP DEMOCODE\Source\Initial.c"
  26  0008  1E00     R  	snz _Sub_CMPx_Calibration_2[2]
  26  0009  2800     R  	jmp _L3
  29  000A              #line 29 "C:\Users\Administrator\Desktop\QQ 接收文件\NW2018_16NSOP DEMOCODE for佳点1\NW2018_16NSOP DEMOCODE\Source\Initial.c"
  29  000A  0F80        	mov a,128
  29  000B  0082        	mov ir,a
  30  000C              #line 30 "C:\Users\Administrator\Desktop\QQ 接收文件\NW2018_16NSOP DEMOCODE for佳点1\NW2018_16NSOP DEMOCODE\Source\Initial.c"
  30  000C  0F3F        	mov a,63
  30  000D  0080     R  	mov _Sub_CMPx_Calibration_2[3],a
  30  000E  2800     R  	jmp _L4
  30  000F              _L3:
  35  000F              #line 35 "C:\Users\Administrator\Desktop\QQ 接收文件\NW2018_16NSOP DEMOCODE for佳点1\NW2018_16NSOP DEMOCODE\Source\Initial.c"
  35  000F  0F40        	mov a,64
  35  0010  0082        	mov ir,a
  36  0011              #line 36 "C:\Users\Administrator\Desktop\QQ 接收文件\NW2018_16NSOP DEMOCODE for佳点1\NW2018_16NSOP DEMOCODE\Source\Initial.c"
  36  0011  0F1F        	mov a,31
  36  0012  0080     R  	mov _Sub_CMPx_Calibration_2[3],a
  36  0013              _L4:
  38  0013              #line 38 "C:\Users\Administrator\Desktop\QQ 接收文件\NW2018_16NSOP DEMOCODE for佳点1\NW2018_16NSOP DEMOCODE\Source\Initial.c"
  38  0013              ;# 38 "C:\Users\Administrator\Desktop\QQ 接收文件\NW2018_16NSOP DEMOCODE for佳点1\NW2018_16NSOP DEMOCODE\Source\Initial.c" 1
  38  0013              	IF 1000>263690
文件：Initial.c    编译器版本 HGASM 0202 页次3

  38  0013              ;# 38 "C:\Users\Administrator\Desktop\QQ 接收文件\NW2018_16NSOP DEMOCODE for佳点1\NW2018_16NSOP DEMOCODE\Source\Initial.c" 1
  38  0013              	ERRMESSAGE 'the value 1000of the argument exceeds the maxinum 263690'
  38  0013              	ENDIF
  38  0013              ;# 38 "C:\Users\Administrator\Desktop\QQ 接收文件\NW2018_16NSOP DEMOCODE for佳点1\NW2018_16NSOP DEMOCODE\Source\Initial.c" 1
  38  0013              	IF 1000<0
  38  0013              ;# 38 "C:\Users\Administrator\Desktop\QQ 接收文件\NW2018_16NSOP DEMOCODE for佳点1\NW2018_16NSOP DEMOCODE\Source\Initial.c" 1
  38  0013              	ERRMESSAGE 'the value 1000 of the argument exceeds the mininum 0'
  38  0013              	ENDIF
  38  0013              ;# 38 "C:\Users\Administrator\Desktop\QQ 接收文件\NW2018_16NSOP DEMOCODE for佳点1\NW2018_16NSOP DEMOCODE\Source\Initial.c" 1
  38  0013              	IF 1000==0
  38  0013              ;# 38 "C:\Users\Administrator\Desktop\QQ 接收文件\NW2018_16NSOP DEMOCODE for佳点1\NW2018_16NSOP DEMOCODE\Source\Initial.c" 1
  38  0013              	JMP $
  38  0013              	ENDIF
  38  0013              ;# 38 "C:\Users\Administrator\Desktop\QQ 接收文件\NW2018_16NSOP DEMOCODE for佳点1\NW2018_16NSOP DEMOCODE\Source\Initial.c" 1
  38  0013              	IF 1000==1
  38  0013              ;# 38 "C:\Users\Administrator\Desktop\QQ 接收文件\NW2018_16NSOP DEMOCODE for佳点1\NW2018_16NSOP DEMOCODE\Source\Initial.c" 1
  38  0013              	NOP
  38  0013              	ENDIF
  38  0013              ;# 38 "C:\Users\Administrator\Desktop\QQ 接收文件\NW2018_16NSOP DEMOCODE for佳点1\NW2018_16NSOP DEMOCODE\Source\Initial.c" 1
  38  0013              	IF 1000==2
  38  0013              ;# 38 "C:\Users\Administrator\Desktop\QQ 接收文件\NW2018_16NSOP DEMOCODE for佳点1\NW2018_16NSOP DEMOCODE\Source\Initial.c" 1
  38  0013              	NOP
  38  0013              ;# 38 "C:\Users\Administrator\Desktop\QQ 接收文件\NW2018_16NSOP DEMOCODE for佳点1\NW2018_16NSOP DEMOCODE\Source\Initial.c" 1
  38  0013              	NOP
  38  0013              	ENDIF
  38  0013              ;# 38 "C:\Users\Administrator\Desktop\QQ 接收文件\NW2018_16NSOP DEMOCODE for佳点1\NW2018_16NSOP DEMOCODE\Source\Initial.c" 1
  38  0013              	IF 1000==3
  38  0013              ;# 38 "C:\Users\Administrator\Desktop\QQ 接收文件\NW2018_16NSOP DEMOCODE for佳点1\NW2018_16NSOP DEMOCODE\Source\Initial.c" 1
  38  0013              	NOP
  38  0013              ;# 38 "C:\Users\Administrator\Desktop\QQ 接收文件\NW2018_16NSOP DEMOCODE for佳点1\NW2018_16NSOP DEMOCODE\Source\Initial.c" 1
  38  0013              	NOP
  38  0013              ;# 38 "C:\Users\Administrator\Desktop\QQ 接收文件\NW2018_16NSOP DEMOCODE for佳点1\NW2018_16NSOP DEMOCODE\Source\Initial.c" 1
  38  0013              	NOP
  38  0013              	ENDIF
  38  0013              ;# 38 "C:\Users\Administrator\Desktop\QQ 接收文件\NW2018_16NSOP DEMOCODE for佳点1\NW2018_16NSOP DEMOCODE\Source\Initial.c" 1
  38  0013              	IF (1000<8) AND (1000>3)
  38  0013              ;# 38 "C:\Users\Administrator\Desktop\QQ 接收文件\NW2018_16NSOP DEMOCODE for佳点1\NW2018_16NSOP DEMOCODE\Source\Initial.c" 1
  38  0013              	CALL __DELAY3 + 7 -1000
  38  0013              	ENDIF
  38  0013              ;# 38 "C:\Users\Administrator\Desktop\QQ 接收文件\NW2018_16NSOP DEMOCODE for佳点1\NW2018_16NSOP DEMOCODE\Source\Initial.c" 1
  38  0013              	IF (1000< 0404h) AND (1000>7)
  38  0013              ;# 38 "C:\Users\Administrator\Desktop\QQ 接收文件\NW2018_16NSOP DEMOCODE for佳点1\NW2018_16NSOP DEMOCODE\Source\Initial.c" 1
  38  0013  0FF9        	MOV A,1000/4-1
  38  0014              ;# 38 "C:\Users\Administrator\Desktop\QQ 接收文件\NW2018_16NSOP DEMOCODE for佳点1\NW2018_16NSOP DEMOCODE\Source\Initial.c" 1
  38  0014  2000     E  	CALL __DELAYX3 + 3 -(1000 MOD 4)
  38  0015              	ENDIF
  38  0015              ;# 38 "C:\Users\Administrator\Desktop\QQ 接收文件\NW2018_16NSOP DEMOCODE for佳点1\NW2018_16NSOP DEMOCODE\Source\Initial.c" 1
  38  0015              	IF (1000< 0x40B) AND (1000> 0403h)
  38  0015              ;# 38 "C:\Users\Administrator\Desktop\QQ 接收文件\NW2018_16NSOP DEMOCODE for佳点1\NW2018_16NSOP DEMOCODE\Source\Initial.c" 1
  38  0015              	MOV A,0 
  38  0015              ;# 38 "C:\Users\Administrator\Desktop\QQ 接收文件\NW2018_16NSOP DEMOCODE for佳点1\NW2018_16NSOP DEMOCODE\Source\Initial.c" 1
  38  0015              	CALL __DELAYX6 + 0x40a -1000
  38  0015              	ENDIF
  38  0015              ;# 38 "C:\Users\Administrator\Desktop\QQ 接收文件\NW2018_16NSOP DEMOCODE for佳点1\NW2018_16NSOP DEMOCODE\Source\Initial.c" 1
  38  0015              	IF (1000 >= 0x40b) AND ((((1000-9)%0402h)/4+1)>256)
  38  0015              ;# 38 "C:\Users\Administrator\Desktop\QQ 接收文件\NW2018_16NSOP DEMOCODE for佳点1\NW2018_16NSOP DEMOCODE\Source\Initial.c" 1
  38  0015              	MOV A,(1000-9)/0402h
  38  0015              ;# 38 "C:\Users\Administrator\Desktop\QQ 接收文件\NW2018_16NSOP DEMOCODE for佳点1\NW2018_16NSOP DEMOCODE\Source\Initial.c" 1
  38  0015              	MOV _builtin_holtek_delay_2,A
  38  0015              ;# 38 "C:\Users\Administrator\Desktop\QQ 接收文件\NW2018_16NSOP DEMOCODE for佳点1\NW2018_16NSOP DEMOCODE\Source\Initial.c" 1
文件：Initial.c    编译器版本 HGASM 0202 页次4

  38  0015              	MOV A,0
  38  0015              ;# 38 "C:\Users\Administrator\Desktop\QQ 接收文件\NW2018_16NSOP DEMOCODE for佳点1\NW2018_16NSOP DEMOCODE\Source\Initial.c" 1
  38  0015              	CALL __DELAYY5 +5- (((1000-9)%0402h)%6)
  38  0015              	ENDIF
  38  0015              ;# 38 "C:\Users\Administrator\Desktop\QQ 接收文件\NW2018_16NSOP DEMOCODE for佳点1\NW2018_16NSOP DEMOCODE\Source\Initial.c" 1
  38  0015              	IF (1000 >= 0x40b) AND ((((1000-9)%0402h)/4+1)<=256)
  38  0015              ;# 38 "C:\Users\Administrator\Desktop\QQ 接收文件\NW2018_16NSOP DEMOCODE for佳点1\NW2018_16NSOP DEMOCODE\Source\Initial.c" 1
  38  0015              	MOV A,(1000-9)/0402h
  38  0015              ;# 38 "C:\Users\Administrator\Desktop\QQ 接收文件\NW2018_16NSOP DEMOCODE for佳点1\NW2018_16NSOP DEMOCODE\Source\Initial.c" 1
  38  0015              	MOV _builtin_holtek_delay_2,A
  38  0015              ;# 38 "C:\Users\Administrator\Desktop\QQ 接收文件\NW2018_16NSOP DEMOCODE for佳点1\NW2018_16NSOP DEMOCODE\Source\Initial.c" 1
  38  0015              	MOV A,((1000-9)%0402h)/4+1
  38  0015              ;# 38 "C:\Users\Administrator\Desktop\QQ 接收文件\NW2018_16NSOP DEMOCODE for佳点1\NW2018_16NSOP DEMOCODE\Source\Initial.c" 1
  38  0015              	CALL __DELAYY3 +3-(((1000-9)%0402h)%4)
  38  0015              	ENDIF
  40  0015              #line 40 "C:\Users\Administrator\Desktop\QQ 接收文件\NW2018_16NSOP DEMOCODE for佳点1\NW2018_16NSOP DEMOCODE\Source\Initial.c"
  40  0015  1F00     R  	clr _Sub_CMPx_Calibration_2[6]
  41  0016              #line 41 "C:\Users\Administrator\Desktop\QQ 接收文件\NW2018_16NSOP DEMOCODE for佳点1\NW2018_16NSOP DEMOCODE\Source\Initial.c"
  41  0016  1F00     R  	clr _Sub_CMPx_Calibration_2[4]
  42  0017              #line 42 "C:\Users\Administrator\Desktop\QQ 接收文件\NW2018_16NSOP DEMOCODE for佳点1\NW2018_16NSOP DEMOCODE\Source\Initial.c"
  42  0017  1E00     R  	snz _Sub_CMPx_Calibration_2[2]
  42  0018  2800     R  	jmp _L5
  44  0019              #line 44 "C:\Users\Administrator\Desktop\QQ 接收文件\NW2018_16NSOP DEMOCODE for佳点1\NW2018_16NSOP DEMOCODE\Source\Initial.c"
  44  0019  387A        	snz [122].0
  44  001A  2800     R  	jmp _L13
  45  001B              #line 45 "C:\Users\Administrator\Desktop\QQ 接收文件\NW2018_16NSOP DEMOCODE for佳点1\NW2018_16NSOP DEMOCODE\Source\Initial.c"
  45  001B  0F01        	mov a,1
  45  001C  0080     R  	mov _Sub_CMPx_Calibration_2[4],a
  45  001D  2800     R  	jmp _L13
  45  001E              _L5:
  49  001E              #line 49 "C:\Users\Administrator\Desktop\QQ 接收文件\NW2018_16NSOP DEMOCODE for佳点1\NW2018_16NSOP DEMOCODE\Source\Initial.c"
  49  001E  0700     R  	mov a,_Sub_CMPx_Calibration_2[0]
  49  001F  0083        	mov mp,a
  49  0020  0700     R  	mov a,_Sub_CMPx_Calibration_2[1]
  49  0021  0084        	mov sbp,a
  49  0022  2000     E  	call _Crom2Prom
  49  0023  0080     E  	mov ra,a
  49  0024  3800     E  	snz ra.7
  49  0025  2800     R  	jmp _L13
  50  0026              #line 50 "C:\Users\Administrator\Desktop\QQ 接收文件\NW2018_16NSOP DEMOCODE for佳点1\NW2018_16NSOP DEMOCODE\Source\Initial.c"
  50  0026  0F80        	mov a,128
  50  0027  0080     R  	mov _Sub_CMPx_Calibration_2[4],a
  50  0028              _L13:
  55  0028              #line 55 "C:\Users\Administrator\Desktop\QQ 接收文件\NW2018_16NSOP DEMOCODE for佳点1\NW2018_16NSOP DEMOCODE\Source\Initial.c"
  55  0028              ;# 55 "C:\Users\Administrator\Desktop\QQ 接收文件\NW2018_16NSOP DEMOCODE for佳点1\NW2018_16NSOP DEMOCODE\Source\Initial.c" 1
  55  0028  0001        	clr wdt
  56  0029              #line 56 "C:\Users\Administrator\Desktop\QQ 接收文件\NW2018_16NSOP DEMOCODE for佳点1\NW2018_16NSOP DEMOCODE\Source\Initial.c"
  56  0029  0700     R  	mov a,_Sub_CMPx_Calibration_2[0]
  56  002A  0083        	mov mp,a
  56  002B  0700     R  	mov a,_Sub_CMPx_Calibration_2[1]
  56  002C  0084        	mov sbp,a
  56  002D  2000     E  	call _Crom2Prom
  56  002E  0080     R  	mov _Sub_CMPx_Calibration_2[7],a
  56  002F  1400     R  	inca _Sub_CMPx_Calibration_2[7]
  56  0030  0080     E  	mov ra,a
  56  0031  0700     E  	mov a,ra
  56  0032  0082        	mov ir,a
  57  0033              #line 57 "C:\Users\Administrator\Desktop\QQ 接收文件\NW2018_16NSOP DEMOCODE for佳点1\NW2018_16NSOP DEMOCODE\Source\Initial.c"
  57  0033  1480     R  	inc _Sub_CMPx_Calibration_2[6]
  58  0034              #line 58 "C:\Users\Administrator\Desktop\QQ 接收文件\NW2018_16NSOP DEMOCODE for佳点1\NW2018_16NSOP DEMOCODE\Source\Initial.c"
文件：Initial.c    编译器版本 HGASM 0202 页次5

  58  0034              ;# 58 "C:\Users\Administrator\Desktop\QQ 接收文件\NW2018_16NSOP DEMOCODE for佳点1\NW2018_16NSOP DEMOCODE\Source\Initial.c" 1
  58  0034              	IF 1000>263690
  58  0034              ;# 58 "C:\Users\Administrator\Desktop\QQ 接收文件\NW2018_16NSOP DEMOCODE for佳点1\NW2018_16NSOP DEMOCODE\Source\Initial.c" 1
  58  0034              	ERRMESSAGE 'the value 1000of the argument exceeds the maxinum 263690'
  58  0034              	ENDIF
  58  0034              ;# 58 "C:\Users\Administrator\Desktop\QQ 接收文件\NW2018_16NSOP DEMOCODE for佳点1\NW2018_16NSOP DEMOCODE\Source\Initial.c" 1
  58  0034              	IF 1000<0
  58  0034              ;# 58 "C:\Users\Administrator\Desktop\QQ 接收文件\NW2018_16NSOP DEMOCODE for佳点1\NW2018_16NSOP DEMOCODE\Source\Initial.c" 1
  58  0034              	ERRMESSAGE 'the value 1000 of the argument exceeds the mininum 0'
  58  0034              	ENDIF
  58  0034              ;# 58 "C:\Users\Administrator\Desktop\QQ 接收文件\NW2018_16NSOP DEMOCODE for佳点1\NW2018_16NSOP DEMOCODE\Source\Initial.c" 1
  58  0034              	IF 1000==0
  58  0034              ;# 58 "C:\Users\Administrator\Desktop\QQ 接收文件\NW2018_16NSOP DEMOCODE for佳点1\NW2018_16NSOP DEMOCODE\Source\Initial.c" 1
  58  0034              	JMP $
  58  0034              	ENDIF
  58  0034              ;# 58 "C:\Users\Administrator\Desktop\QQ 接收文件\NW2018_16NSOP DEMOCODE for佳点1\NW2018_16NSOP DEMOCODE\Source\Initial.c" 1
  58  0034              	IF 1000==1
  58  0034              ;# 58 "C:\Users\Administrator\Desktop\QQ 接收文件\NW2018_16NSOP DEMOCODE for佳点1\NW2018_16NSOP DEMOCODE\Source\Initial.c" 1
  58  0034              	NOP
  58  0034              	ENDIF
  58  0034              ;# 58 "C:\Users\Administrator\Desktop\QQ 接收文件\NW2018_16NSOP DEMOCODE for佳点1\NW2018_16NSOP DEMOCODE\Source\Initial.c" 1
  58  0034              	IF 1000==2
  58  0034              ;# 58 "C:\Users\Administrator\Desktop\QQ 接收文件\NW2018_16NSOP DEMOCODE for佳点1\NW2018_16NSOP DEMOCODE\Source\Initial.c" 1
  58  0034              	NOP
  58  0034              ;# 58 "C:\Users\Administrator\Desktop\QQ 接收文件\NW2018_16NSOP DEMOCODE for佳点1\NW2018_16NSOP DEMOCODE\Source\Initial.c" 1
  58  0034              	NOP
  58  0034              	ENDIF
  58  0034              ;# 58 "C:\Users\Administrator\Desktop\QQ 接收文件\NW2018_16NSOP DEMOCODE for佳点1\NW2018_16NSOP DEMOCODE\Source\Initial.c" 1
  58  0034              	IF 1000==3
  58  0034              ;# 58 "C:\Users\Administrator\Desktop\QQ 接收文件\NW2018_16NSOP DEMOCODE for佳点1\NW2018_16NSOP DEMOCODE\Source\Initial.c" 1
  58  0034              	NOP
  58  0034              ;# 58 "C:\Users\Administrator\Desktop\QQ 接收文件\NW2018_16NSOP DEMOCODE for佳点1\NW2018_16NSOP DEMOCODE\Source\Initial.c" 1
  58  0034              	NOP
  58  0034              ;# 58 "C:\Users\Administrator\Desktop\QQ 接收文件\NW2018_16NSOP DEMOCODE for佳点1\NW2018_16NSOP DEMOCODE\Source\Initial.c" 1
  58  0034              	NOP
  58  0034              	ENDIF
  58  0034              ;# 58 "C:\Users\Administrator\Desktop\QQ 接收文件\NW2018_16NSOP DEMOCODE for佳点1\NW2018_16NSOP DEMOCODE\Source\Initial.c" 1
  58  0034              	IF (1000<8) AND (1000>3)
  58  0034              ;# 58 "C:\Users\Administrator\Desktop\QQ 接收文件\NW2018_16NSOP DEMOCODE for佳点1\NW2018_16NSOP DEMOCODE\Source\Initial.c" 1
  58  0034              	CALL __DELAY3 + 7 -1000
  58  0034              	ENDIF
  58  0034              ;# 58 "C:\Users\Administrator\Desktop\QQ 接收文件\NW2018_16NSOP DEMOCODE for佳点1\NW2018_16NSOP DEMOCODE\Source\Initial.c" 1
  58  0034              	IF (1000< 0404h) AND (1000>7)
  58  0034              ;# 58 "C:\Users\Administrator\Desktop\QQ 接收文件\NW2018_16NSOP DEMOCODE for佳点1\NW2018_16NSOP DEMOCODE\Source\Initial.c" 1
  58  0034  0FF9        	MOV A,1000/4-1
  58  0035              ;# 58 "C:\Users\Administrator\Desktop\QQ 接收文件\NW2018_16NSOP DEMOCODE for佳点1\NW2018_16NSOP DEMOCODE\Source\Initial.c" 1
  58  0035  2000     E  	CALL __DELAYX3 + 3 -(1000 MOD 4)
  58  0036              	ENDIF
  58  0036              ;# 58 "C:\Users\Administrator\Desktop\QQ 接收文件\NW2018_16NSOP DEMOCODE for佳点1\NW2018_16NSOP DEMOCODE\Source\Initial.c" 1
  58  0036              	IF (1000< 0x40B) AND (1000> 0403h)
  58  0036              ;# 58 "C:\Users\Administrator\Desktop\QQ 接收文件\NW2018_16NSOP DEMOCODE for佳点1\NW2018_16NSOP DEMOCODE\Source\Initial.c" 1
  58  0036              	MOV A,0 
  58  0036              ;# 58 "C:\Users\Administrator\Desktop\QQ 接收文件\NW2018_16NSOP DEMOCODE for佳点1\NW2018_16NSOP DEMOCODE\Source\Initial.c" 1
  58  0036              	CALL __DELAYX6 + 0x40a -1000
  58  0036              	ENDIF
  58  0036              ;# 58 "C:\Users\Administrator\Desktop\QQ 接收文件\NW2018_16NSOP DEMOCODE for佳点1\NW2018_16NSOP DEMOCODE\Source\Initial.c" 1
  58  0036              	IF (1000 >= 0x40b) AND ((((1000-9)%0402h)/4+1)>256)
  58  0036              ;# 58 "C:\Users\Administrator\Desktop\QQ 接收文件\NW2018_16NSOP DEMOCODE for佳点1\NW2018_16NSOP DEMOCODE\Source\Initial.c" 1
  58  0036              	MOV A,(1000-9)/0402h
  58  0036              ;# 58 "C:\Users\Administrator\Desktop\QQ 接收文件\NW2018_16NSOP DEMOCODE for佳点1\NW2018_16NSOP DEMOCODE\Source\Initial.c" 1
文件：Initial.c    编译器版本 HGASM 0202 页次6

  58  0036              	MOV _builtin_holtek_delay_2,A
  58  0036              ;# 58 "C:\Users\Administrator\Desktop\QQ 接收文件\NW2018_16NSOP DEMOCODE for佳点1\NW2018_16NSOP DEMOCODE\Source\Initial.c" 1
  58  0036              	MOV A,0
  58  0036              ;# 58 "C:\Users\Administrator\Desktop\QQ 接收文件\NW2018_16NSOP DEMOCODE for佳点1\NW2018_16NSOP DEMOCODE\Source\Initial.c" 1
  58  0036              	CALL __DELAYY5 +5- (((1000-9)%0402h)%6)
  58  0036              	ENDIF
  58  0036              ;# 58 "C:\Users\Administrator\Desktop\QQ 接收文件\NW2018_16NSOP DEMOCODE for佳点1\NW2018_16NSOP DEMOCODE\Source\Initial.c" 1
  58  0036              	IF (1000 >= 0x40b) AND ((((1000-9)%0402h)/4+1)<=256)
  58  0036              ;# 58 "C:\Users\Administrator\Desktop\QQ 接收文件\NW2018_16NSOP DEMOCODE for佳点1\NW2018_16NSOP DEMOCODE\Source\Initial.c" 1
  58  0036              	MOV A,(1000-9)/0402h
  58  0036              ;# 58 "C:\Users\Administrator\Desktop\QQ 接收文件\NW2018_16NSOP DEMOCODE for佳点1\NW2018_16NSOP DEMOCODE\Source\Initial.c" 1
  58  0036              	MOV _builtin_holtek_delay_2,A
  58  0036              ;# 58 "C:\Users\Administrator\Desktop\QQ 接收文件\NW2018_16NSOP DEMOCODE for佳点1\NW2018_16NSOP DEMOCODE\Source\Initial.c" 1
  58  0036              	MOV A,((1000-9)%0402h)/4+1
  58  0036              ;# 58 "C:\Users\Administrator\Desktop\QQ 接收文件\NW2018_16NSOP DEMOCODE for佳点1\NW2018_16NSOP DEMOCODE\Source\Initial.c" 1
  58  0036              	CALL __DELAYY3 +3-(((1000-9)%0402h)%4)
  58  0036              	ENDIF
  59  0036              #line 59 "C:\Users\Administrator\Desktop\QQ 接收文件\NW2018_16NSOP DEMOCODE for佳点1\NW2018_16NSOP DEMOCODE\Source\Initial.c"
  59  0036  1E00     R  	snz _Sub_CMPx_Calibration_2[2]
  59  0037  2800     R  	jmp _L7
  61  0038              #line 61 "C:\Users\Administrator\Desktop\QQ 接收文件\NW2018_16NSOP DEMOCODE for佳点1\NW2018_16NSOP DEMOCODE\Source\Initial.c"
  61  0038  077A        	mov a,[122]
  61  0039  0E01        	and a,1
  61  003A  0080     E  	mov ra,a
  61  003B  2800     R  	jmp _L35
  61  003C              _L7:
  66  003C              #line 66 "C:\Users\Administrator\Desktop\QQ 接收文件\NW2018_16NSOP DEMOCODE for佳点1\NW2018_16NSOP DEMOCODE\Source\Initial.c"
  66  003C  0700     R  	mov a,_Sub_CMPx_Calibration_2[0]
  66  003D  0083        	mov mp,a
  66  003E  0700     R  	mov a,_Sub_CMPx_Calibration_2[1]
  66  003F  0084        	mov sbp,a
  66  0040  2000     E  	call _Crom2Prom
  66  0041  0080     E  	mov ra,a
  66  0042  0F80        	mov a,128
  66  0043  0680     E  	andm a,ra
  66  0044              _L35:
  66  0044  0700     R  	mov a,_Sub_CMPx_Calibration_2[4]
  66  0045  0200     E  	sub a,ra
  66  0046  3D0A        	sz z
  66  0047  2800     R  	jmp _L9
  66  0048              _L15:
  66  0048  0700     R  	mov a,_Sub_CMPx_Calibration_2[0]
  66  0049  0080     E  	mov rb,a
  66  004A  0700     R  	mov a,_Sub_CMPx_Calibration_2[1]
  66  004B  0080     E  	mov rc,a
  83  004C              #line 83 "C:\Users\Administrator\Desktop\QQ 接收文件\NW2018_16NSOP DEMOCODE for佳点1\NW2018_16NSOP DEMOCODE\Source\Initial.c"
  83  004C  1E00     R  	snz _Sub_CMPx_Calibration_2[2]
  83  004D  2800     R  	jmp _L38
  86  004E              #line 86 "C:\Users\Administrator\Desktop\QQ 接收文件\NW2018_16NSOP DEMOCODE for佳点1\NW2018_16NSOP DEMOCODE\Source\Initial.c"
  86  004E  0700     E  	mov a,rb
  86  004F  0083        	mov mp,a
  86  0050  0700     E  	mov a,rc
  86  0051  0084        	mov sbp,a
  86  0052  0FBF        	mov a,191
  86  0053  0082        	mov ir,a
  86  0054  2800     R  	jmp _L16
  86  0055              _L9:
  69  0055              #line 69 "C:\Users\Administrator\Desktop\QQ 接收文件\NW2018_16NSOP DEMOCODE for佳点1\NW2018_16NSOP DEMOCODE\Source\Initial.c"
  69  0055  0700     R  	mov a,_Sub_CMPx_Calibration_2[6]
  69  0056  0200     R  	sub a,_Sub_CMPx_Calibration_2[3]
文件：Initial.c    编译器版本 HGASM 0202 页次7

  69  0057  390A        	snz z
  69  0058  2800     R  	jmp _L13
  69  0059  2800     R  	jmp _L14
  69  005A              _L38:
  91  005A              #line 91 "C:\Users\Administrator\Desktop\QQ 接收文件\NW2018_16NSOP DEMOCODE for佳点1\NW2018_16NSOP DEMOCODE\Source\Initial.c"
  91  005A  0700     E  	mov a,rb
  91  005B  0083        	mov mp,a
  91  005C  0700     E  	mov a,rc
  91  005D  0084        	mov sbp,a
  91  005E  0F5F        	mov a,95
  91  005F  0082        	mov ir,a
  91  0060              _L16:
  93  0060              #line 93 "C:\Users\Administrator\Desktop\QQ 接收文件\NW2018_16NSOP DEMOCODE for佳点1\NW2018_16NSOP DEMOCODE\Source\Initial.c"
  93  0060              ;# 93 "C:\Users\Administrator\Desktop\QQ 接收文件\NW2018_16NSOP DEMOCODE for佳点1\NW2018_16NSOP DEMOCODE\Source\Initial.c" 1
  93  0060              	IF 1000>263690
  93  0060              ;# 93 "C:\Users\Administrator\Desktop\QQ 接收文件\NW2018_16NSOP DEMOCODE for佳点1\NW2018_16NSOP DEMOCODE\Source\Initial.c" 1
  93  0060              	ERRMESSAGE 'the value 1000of the argument exceeds the maxinum 263690'
  93  0060              	ENDIF
  93  0060              ;# 93 "C:\Users\Administrator\Desktop\QQ 接收文件\NW2018_16NSOP DEMOCODE for佳点1\NW2018_16NSOP DEMOCODE\Source\Initial.c" 1
  93  0060              	IF 1000<0
  93  0060              ;# 93 "C:\Users\Administrator\Desktop\QQ 接收文件\NW2018_16NSOP DEMOCODE for佳点1\NW2018_16NSOP DEMOCODE\Source\Initial.c" 1
  93  0060              	ERRMESSAGE 'the value 1000 of the argument exceeds the mininum 0'
  93  0060              	ENDIF
  93  0060              ;# 93 "C:\Users\Administrator\Desktop\QQ 接收文件\NW2018_16NSOP DEMOCODE for佳点1\NW2018_16NSOP DEMOCODE\Source\Initial.c" 1
  93  0060              	IF 1000==0
  93  0060              ;# 93 "C:\Users\Administrator\Desktop\QQ 接收文件\NW2018_16NSOP DEMOCODE for佳点1\NW2018_16NSOP DEMOCODE\Source\Initial.c" 1
  93  0060              	JMP $
  93  0060              	ENDIF
  93  0060              ;# 93 "C:\Users\Administrator\Desktop\QQ 接收文件\NW2018_16NSOP DEMOCODE for佳点1\NW2018_16NSOP DEMOCODE\Source\Initial.c" 1
  93  0060              	IF 1000==1
  93  0060              ;# 93 "C:\Users\Administrator\Desktop\QQ 接收文件\NW2018_16NSOP DEMOCODE for佳点1\NW2018_16NSOP DEMOCODE\Source\Initial.c" 1
  93  0060              	NOP
  93  0060              	ENDIF
  93  0060              ;# 93 "C:\Users\Administrator\Desktop\QQ 接收文件\NW2018_16NSOP DEMOCODE for佳点1\NW2018_16NSOP DEMOCODE\Source\Initial.c" 1
  93  0060              	IF 1000==2
  93  0060              ;# 93 "C:\Users\Administrator\Desktop\QQ 接收文件\NW2018_16NSOP DEMOCODE for佳点1\NW2018_16NSOP DEMOCODE\Source\Initial.c" 1
  93  0060              	NOP
  93  0060              ;# 93 "C:\Users\Administrator\Desktop\QQ 接收文件\NW2018_16NSOP DEMOCODE for佳点1\NW2018_16NSOP DEMOCODE\Source\Initial.c" 1
  93  0060              	NOP
  93  0060              	ENDIF
  93  0060              ;# 93 "C:\Users\Administrator\Desktop\QQ 接收文件\NW2018_16NSOP DEMOCODE for佳点1\NW2018_16NSOP DEMOCODE\Source\Initial.c" 1
  93  0060              	IF 1000==3
  93  0060              ;# 93 "C:\Users\Administrator\Desktop\QQ 接收文件\NW2018_16NSOP DEMOCODE for佳点1\NW2018_16NSOP DEMOCODE\Source\Initial.c" 1
  93  0060              	NOP
  93  0060              ;# 93 "C:\Users\Administrator\Desktop\QQ 接收文件\NW2018_16NSOP DEMOCODE for佳点1\NW2018_16NSOP DEMOCODE\Source\Initial.c" 1
  93  0060              	NOP
  93  0060              ;# 93 "C:\Users\Administrator\Desktop\QQ 接收文件\NW2018_16NSOP DEMOCODE for佳点1\NW2018_16NSOP DEMOCODE\Source\Initial.c" 1
  93  0060              	NOP
  93  0060              	ENDIF
  93  0060              ;# 93 "C:\Users\Administrator\Desktop\QQ 接收文件\NW2018_16NSOP DEMOCODE for佳点1\NW2018_16NSOP DEMOCODE\Source\Initial.c" 1
  93  0060              	IF (1000<8) AND (1000>3)
  93  0060              ;# 93 "C:\Users\Administrator\Desktop\QQ 接收文件\NW2018_16NSOP DEMOCODE for佳点1\NW2018_16NSOP DEMOCODE\Source\Initial.c" 1
  93  0060              	CALL __DELAY3 + 7 -1000
  93  0060              	ENDIF
  93  0060              ;# 93 "C:\Users\Administrator\Desktop\QQ 接收文件\NW2018_16NSOP DEMOCODE for佳点1\NW2018_16NSOP DEMOCODE\Source\Initial.c" 1
  93  0060              	IF (1000< 0404h) AND (1000>7)
  93  0060              ;# 93 "C:\Users\Administrator\Desktop\QQ 接收文件\NW2018_16NSOP DEMOCODE for佳点1\NW2018_16NSOP DEMOCODE\Source\Initial.c" 1
  93  0060  0FF9        	MOV A,1000/4-1
  93  0061              ;# 93 "C:\Users\Administrator\Desktop\QQ 接收文件\NW2018_16NSOP DEMOCODE for佳点1\NW2018_16NSOP DEMOCODE\Source\Initial.c" 1
  93  0061  2000     E  	CALL __DELAYX3 + 3 -(1000 MOD 4)
文件：Initial.c    编译器版本 HGASM 0202 页次8

  93  0062              	ENDIF
  93  0062              ;# 93 "C:\Users\Administrator\Desktop\QQ 接收文件\NW2018_16NSOP DEMOCODE for佳点1\NW2018_16NSOP DEMOCODE\Source\Initial.c" 1
  93  0062              	IF (1000< 0x40B) AND (1000> 0403h)
  93  0062              ;# 93 "C:\Users\Administrator\Desktop\QQ 接收文件\NW2018_16NSOP DEMOCODE for佳点1\NW2018_16NSOP DEMOCODE\Source\Initial.c" 1
  93  0062              	MOV A,0 
  93  0062              ;# 93 "C:\Users\Administrator\Desktop\QQ 接收文件\NW2018_16NSOP DEMOCODE for佳点1\NW2018_16NSOP DEMOCODE\Source\Initial.c" 1
  93  0062              	CALL __DELAYX6 + 0x40a -1000
  93  0062              	ENDIF
  93  0062              ;# 93 "C:\Users\Administrator\Desktop\QQ 接收文件\NW2018_16NSOP DEMOCODE for佳点1\NW2018_16NSOP DEMOCODE\Source\Initial.c" 1
  93  0062              	IF (1000 >= 0x40b) AND ((((1000-9)%0402h)/4+1)>256)
  93  0062              ;# 93 "C:\Users\Administrator\Desktop\QQ 接收文件\NW2018_16NSOP DEMOCODE for佳点1\NW2018_16NSOP DEMOCODE\Source\Initial.c" 1
  93  0062              	MOV A,(1000-9)/0402h
  93  0062              ;# 93 "C:\Users\Administrator\Desktop\QQ 接收文件\NW2018_16NSOP DEMOCODE for佳点1\NW2018_16NSOP DEMOCODE\Source\Initial.c" 1
  93  0062              	MOV _builtin_holtek_delay_2,A
  93  0062              ;# 93 "C:\Users\Administrator\Desktop\QQ 接收文件\NW2018_16NSOP DEMOCODE for佳点1\NW2018_16NSOP DEMOCODE\Source\Initial.c" 1
  93  0062              	MOV A,0
  93  0062              ;# 93 "C:\Users\Administrator\Desktop\QQ 接收文件\NW2018_16NSOP DEMOCODE for佳点1\NW2018_16NSOP DEMOCODE\Source\Initial.c" 1
  93  0062              	CALL __DELAYY5 +5- (((1000-9)%0402h)%6)
  93  0062              	ENDIF
  93  0062              ;# 93 "C:\Users\Administrator\Desktop\QQ 接收文件\NW2018_16NSOP DEMOCODE for佳点1\NW2018_16NSOP DEMOCODE\Source\Initial.c" 1
  93  0062              	IF (1000 >= 0x40b) AND ((((1000-9)%0402h)/4+1)<=256)
  93  0062              ;# 93 "C:\Users\Administrator\Desktop\QQ 接收文件\NW2018_16NSOP DEMOCODE for佳点1\NW2018_16NSOP DEMOCODE\Source\Initial.c" 1
  93  0062              	MOV A,(1000-9)/0402h
  93  0062              ;# 93 "C:\Users\Administrator\Desktop\QQ 接收文件\NW2018_16NSOP DEMOCODE for佳点1\NW2018_16NSOP DEMOCODE\Source\Initial.c" 1
  93  0062              	MOV _builtin_holtek_delay_2,A
  93  0062              ;# 93 "C:\Users\Administrator\Desktop\QQ 接收文件\NW2018_16NSOP DEMOCODE for佳点1\NW2018_16NSOP DEMOCODE\Source\Initial.c" 1
  93  0062              	MOV A,((1000-9)%0402h)/4+1
  93  0062              ;# 93 "C:\Users\Administrator\Desktop\QQ 接收文件\NW2018_16NSOP DEMOCODE for佳点1\NW2018_16NSOP DEMOCODE\Source\Initial.c" 1
  93  0062              	CALL __DELAYY3 +3-(((1000-9)%0402h)%4)
  93  0062              	ENDIF
  95  0062              #line 95 "C:\Users\Administrator\Desktop\QQ 接收文件\NW2018_16NSOP DEMOCODE for佳点1\NW2018_16NSOP DEMOCODE\Source\Initial.c"
  95  0062  0700     R  	mov a,_Sub_CMPx_Calibration_2[3]
  95  0063  0080     R  	mov _Sub_CMPx_Calibration_2[5],a
  96  0064              #line 96 "C:\Users\Administrator\Desktop\QQ 接收文件\NW2018_16NSOP DEMOCODE for佳点1\NW2018_16NSOP DEMOCODE\Source\Initial.c"
  96  0064  1F00     R  	clr _Sub_CMPx_Calibration_2[4]
  97  0065              #line 97 "C:\Users\Administrator\Desktop\QQ 接收文件\NW2018_16NSOP DEMOCODE for佳点1\NW2018_16NSOP DEMOCODE\Source\Initial.c"
  97  0065  1E00     R  	snz _Sub_CMPx_Calibration_2[2]
  97  0066  2800     R  	jmp _L17
  99  0067              #line 99 "C:\Users\Administrator\Desktop\QQ 接收文件\NW2018_16NSOP DEMOCODE for佳点1\NW2018_16NSOP DEMOCODE\Source\Initial.c"
  99  0067  387A        	snz [122].0
  99  0068  2800     R  	jmp _L23
 100  0069              #line 100 "C:\Users\Administrator\Desktop\QQ 接收文件\NW2018_16NSOP DEMOCODE for佳点1\NW2018_16NSOP DEMOCODE\Source\Initial.c"
 100  0069  0F01        	mov a,1
 100  006A  0080     R  	mov _Sub_CMPx_Calibration_2[4],a
 100  006B  2800     R  	jmp _L23
 100  006C              _L17:
 104  006C              #line 104 "C:\Users\Administrator\Desktop\QQ 接收文件\NW2018_16NSOP DEMOCODE for佳点1\NW2018_16NSOP DEMOCODE\Source\Initial.c"
 104  006C  0700     R  	mov a,_Sub_CMPx_Calibration_2[0]
 104  006D  0083        	mov mp,a
 104  006E  0700     R  	mov a,_Sub_CMPx_Calibration_2[1]
 104  006F  0084        	mov sbp,a
 104  0070  2000     E  	call _Crom2Prom
 104  0071  0080     E  	mov ra,a
 104  0072  3800     E  	snz ra.7
 104  0073  2800     R  	jmp _L23
 105  0074              #line 105 "C:\Users\Administrator\Desktop\QQ 接收文件\NW2018_16NSOP DEMOCODE for佳点1\NW2018_16NSOP DEMOCODE\Source\Initial.c"
 105  0074  0F80        	mov a,128
 105  0075  0080     R  	mov _Sub_CMPx_Calibration_2[4],a
 105  0076              _L23:
 110  0076              #line 110 "C:\Users\Administrator\Desktop\QQ 接收文件\NW2018_16NSOP DEMOCODE for佳点1\NW2018_16NSOP DEMOCODE\Source\Initial.c"
文件：Initial.c    编译器版本 HGASM 0202 页次9

 110  0076              ;# 110 "C:\Users\Administrator\Desktop\QQ 接收文件\NW2018_16NSOP DEMOCODE for佳点1\NW2018_16NSOP DEMOCODE\Source\Initial.c" 1
 110  0076  0001        	clr wdt
 111  0077              #line 111 "C:\Users\Administrator\Desktop\QQ 接收文件\NW2018_16NSOP DEMOCODE for佳点1\NW2018_16NSOP DEMOCODE\Source\Initial.c"
 111  0077  0700     R  	mov a,_Sub_CMPx_Calibration_2[0]
 111  0078  0083        	mov mp,a
 111  0079  0700     R  	mov a,_Sub_CMPx_Calibration_2[1]
 111  007A  0084        	mov sbp,a
 111  007B  2000     E  	call _Crom2Prom
 111  007C  0080     R  	mov _Sub_CMPx_Calibration_2[7],a
 111  007D  1500     R  	deca _Sub_CMPx_Calibration_2[7]
 111  007E  0080     E  	mov ra,a
 111  007F  0700     E  	mov a,ra
 111  0080  0082        	mov ir,a
 112  0081              #line 112 "C:\Users\Administrator\Desktop\QQ 接收文件\NW2018_16NSOP DEMOCODE for佳点1\NW2018_16NSOP DEMOCODE\Source\Initial.c"
 112  0081  1580     R  	dec _Sub_CMPx_Calibration_2[5]
 113  0082              #line 113 "C:\Users\Administrator\Desktop\QQ 接收文件\NW2018_16NSOP DEMOCODE for佳点1\NW2018_16NSOP DEMOCODE\Source\Initial.c"
 113  0082              ;# 113 "C:\Users\Administrator\Desktop\QQ 接收文件\NW2018_16NSOP DEMOCODE for佳点1\NW2018_16NSOP DEMOCODE\Source\Initial.c" 1
 113  0082              	IF 1000>263690
 113  0082              ;# 113 "C:\Users\Administrator\Desktop\QQ 接收文件\NW2018_16NSOP DEMOCODE for佳点1\NW2018_16NSOP DEMOCODE\Source\Initial.c" 1
 113  0082              	ERRMESSAGE 'the value 1000of the argument exceeds the maxinum 263690'
 113  0082              	ENDIF
 113  0082              ;# 113 "C:\Users\Administrator\Desktop\QQ 接收文件\NW2018_16NSOP DEMOCODE for佳点1\NW2018_16NSOP DEMOCODE\Source\Initial.c" 1
 113  0082              	IF 1000<0
 113  0082              ;# 113 "C:\Users\Administrator\Desktop\QQ 接收文件\NW2018_16NSOP DEMOCODE for佳点1\NW2018_16NSOP DEMOCODE\Source\Initial.c" 1
 113  0082              	ERRMESSAGE 'the value 1000 of the argument exceeds the mininum 0'
 113  0082              	ENDIF
 113  0082              ;# 113 "C:\Users\Administrator\Desktop\QQ 接收文件\NW2018_16NSOP DEMOCODE for佳点1\NW2018_16NSOP DEMOCODE\Source\Initial.c" 1
 113  0082              	IF 1000==0
 113  0082              ;# 113 "C:\Users\Administrator\Desktop\QQ 接收文件\NW2018_16NSOP DEMOCODE for佳点1\NW2018_16NSOP DEMOCODE\Source\Initial.c" 1
 113  0082              	JMP $
 113  0082              	ENDIF
 113  0082              ;# 113 "C:\Users\Administrator\Desktop\QQ 接收文件\NW2018_16NSOP DEMOCODE for佳点1\NW2018_16NSOP DEMOCODE\Source\Initial.c" 1
 113  0082              	IF 1000==1
 113  0082              ;# 113 "C:\Users\Administrator\Desktop\QQ 接收文件\NW2018_16NSOP DEMOCODE for佳点1\NW2018_16NSOP DEMOCODE\Source\Initial.c" 1
 113  0082              	NOP
 113  0082              	ENDIF
 113  0082              ;# 113 "C:\Users\Administrator\Desktop\QQ 接收文件\NW2018_16NSOP DEMOCODE for佳点1\NW2018_16NSOP DEMOCODE\Source\Initial.c" 1
 113  0082              	IF 1000==2
 113  0082              ;# 113 "C:\Users\Administrator\Desktop\QQ 接收文件\NW2018_16NSOP DEMOCODE for佳点1\NW2018_16NSOP DEMOCODE\Source\Initial.c" 1
 113  0082              	NOP
 113  0082              ;# 113 "C:\Users\Administrator\Desktop\QQ 接收文件\NW2018_16NSOP DEMOCODE for佳点1\NW2018_16NSOP DEMOCODE\Source\Initial.c" 1
 113  0082              	NOP
 113  0082              	ENDIF
 113  0082              ;# 113 "C:\Users\Administrator\Desktop\QQ 接收文件\NW2018_16NSOP DEMOCODE for佳点1\NW2018_16NSOP DEMOCODE\Source\Initial.c" 1
 113  0082              	IF 1000==3
 113  0082              ;# 113 "C:\Users\Administrator\Desktop\QQ 接收文件\NW2018_16NSOP DEMOCODE for佳点1\NW2018_16NSOP DEMOCODE\Source\Initial.c" 1
 113  0082              	NOP
 113  0082              ;# 113 "C:\Users\Administrator\Desktop\QQ 接收文件\NW2018_16NSOP DEMOCODE for佳点1\NW2018_16NSOP DEMOCODE\Source\Initial.c" 1
 113  0082              	NOP
 113  0082              ;# 113 "C:\Users\Administrator\Desktop\QQ 接收文件\NW2018_16NSOP DEMOCODE for佳点1\NW2018_16NSOP DEMOCODE\Source\Initial.c" 1
 113  0082              	NOP
 113  0082              	ENDIF
 113  0082              ;# 113 "C:\Users\Administrator\Desktop\QQ 接收文件\NW2018_16NSOP DEMOCODE for佳点1\NW2018_16NSOP DEMOCODE\Source\Initial.c" 1
 113  0082              	IF (1000<8) AND (1000>3)
 113  0082              ;# 113 "C:\Users\Administrator\Desktop\QQ 接收文件\NW2018_16NSOP DEMOCODE for佳点1\NW2018_16NSOP DEMOCODE\Source\Initial.c" 1
 113  0082              	CALL __DELAY3 + 7 -1000
 113  0082              	ENDIF
 113  0082              ;# 113 "C:\Users\Administrator\Desktop\QQ 接收文件\NW2018_16NSOP DEMOCODE for佳点1\NW2018_16NSOP DEMOCODE\Source\Initial.c" 1
 113  0082              	IF (1000< 0404h) AND (1000>7)
 113  0082              ;# 113 "C:\Users\Administrator\Desktop\QQ 接收文件\NW2018_16NSOP DEMOCODE for佳点1\NW2018_16NSOP DEMOCODE\Source\Initial.c" 1
文件：Initial.c    编译器版本 HGASM 0202 页次10

 113  0082  0FF9        	MOV A,1000/4-1
 113  0083              ;# 113 "C:\Users\Administrator\Desktop\QQ 接收文件\NW2018_16NSOP DEMOCODE for佳点1\NW2018_16NSOP DEMOCODE\Source\Initial.c" 1
 113  0083  2000     E  	CALL __DELAYX3 + 3 -(1000 MOD 4)
 113  0084              	ENDIF
 113  0084              ;# 113 "C:\Users\Administrator\Desktop\QQ 接收文件\NW2018_16NSOP DEMOCODE for佳点1\NW2018_16NSOP DEMOCODE\Source\Initial.c" 1
 113  0084              	IF (1000< 0x40B) AND (1000> 0403h)
 113  0084              ;# 113 "C:\Users\Administrator\Desktop\QQ 接收文件\NW2018_16NSOP DEMOCODE for佳点1\NW2018_16NSOP DEMOCODE\Source\Initial.c" 1
 113  0084              	MOV A,0 
 113  0084              ;# 113 "C:\Users\Administrator\Desktop\QQ 接收文件\NW2018_16NSOP DEMOCODE for佳点1\NW2018_16NSOP DEMOCODE\Source\Initial.c" 1
 113  0084              	CALL __DELAYX6 + 0x40a -1000
 113  0084              	ENDIF
 113  0084              ;# 113 "C:\Users\Administrator\Desktop\QQ 接收文件\NW2018_16NSOP DEMOCODE for佳点1\NW2018_16NSOP DEMOCODE\Source\Initial.c" 1
 113  0084              	IF (1000 >= 0x40b) AND ((((1000-9)%0402h)/4+1)>256)
 113  0084              ;# 113 "C:\Users\Administrator\Desktop\QQ 接收文件\NW2018_16NSOP DEMOCODE for佳点1\NW2018_16NSOP DEMOCODE\Source\Initial.c" 1
 113  0084              	MOV A,(1000-9)/0402h
 113  0084              ;# 113 "C:\Users\Administrator\Desktop\QQ 接收文件\NW2018_16NSOP DEMOCODE for佳点1\NW2018_16NSOP DEMOCODE\Source\Initial.c" 1
 113  0084              	MOV _builtin_holtek_delay_2,A
 113  0084              ;# 113 "C:\Users\Administrator\Desktop\QQ 接收文件\NW2018_16NSOP DEMOCODE for佳点1\NW2018_16NSOP DEMOCODE\Source\Initial.c" 1
 113  0084              	MOV A,0
 113  0084              ;# 113 "C:\Users\Administrator\Desktop\QQ 接收文件\NW2018_16NSOP DEMOCODE for佳点1\NW2018_16NSOP DEMOCODE\Source\Initial.c" 1
 113  0084              	CALL __DELAYY5 +5- (((1000-9)%0402h)%6)
 113  0084              	ENDIF
 113  0084              ;# 113 "C:\Users\Administrator\Desktop\QQ 接收文件\NW2018_16NSOP DEMOCODE for佳点1\NW2018_16NSOP DEMOCODE\Source\Initial.c" 1
 113  0084              	IF (1000 >= 0x40b) AND ((((1000-9)%0402h)/4+1)<=256)
 113  0084              ;# 113 "C:\Users\Administrator\Desktop\QQ 接收文件\NW2018_16NSOP DEMOCODE for佳点1\NW2018_16NSOP DEMOCODE\Source\Initial.c" 1
 113  0084              	MOV A,(1000-9)/0402h
 113  0084              ;# 113 "C:\Users\Administrator\Desktop\QQ 接收文件\NW2018_16NSOP DEMOCODE for佳点1\NW2018_16NSOP DEMOCODE\Source\Initial.c" 1
 113  0084              	MOV _builtin_holtek_delay_2,A
 113  0084              ;# 113 "C:\Users\Administrator\Desktop\QQ 接收文件\NW2018_16NSOP DEMOCODE for佳点1\NW2018_16NSOP DEMOCODE\Source\Initial.c" 1
 113  0084              	MOV A,((1000-9)%0402h)/4+1
 113  0084              ;# 113 "C:\Users\Administrator\Desktop\QQ 接收文件\NW2018_16NSOP DEMOCODE for佳点1\NW2018_16NSOP DEMOCODE\Source\Initial.c" 1
 113  0084              	CALL __DELAYY3 +3-(((1000-9)%0402h)%4)
 113  0084              	ENDIF
 113  0084  0700     R  	mov a,_Sub_CMPx_Calibration_2[0]
 113  0085  0080     E  	mov rb,a
 113  0086  0700     R  	mov a,_Sub_CMPx_Calibration_2[1]
 113  0087  0080     E  	mov rc,a
 114  0088              #line 114 "C:\Users\Administrator\Desktop\QQ 接收文件\NW2018_16NSOP DEMOCODE for佳点1\NW2018_16NSOP DEMOCODE\Source\Initial.c"
 114  0088  1E00     R  	snz _Sub_CMPx_Calibration_2[2]
 114  0089  2800     R  	jmp _L19
 116  008A              #line 116 "C:\Users\Administrator\Desktop\QQ 接收文件\NW2018_16NSOP DEMOCODE for佳点1\NW2018_16NSOP DEMOCODE\Source\Initial.c"
 116  008A  077A        	mov a,[122]
 116  008B  0E01        	and a,1
 116  008C  0080     E  	mov ra,a
 116  008D  0700     R  	mov a,_Sub_CMPx_Calibration_2[4]
 116  008E  0200     E  	sub a,ra
 116  008F  3D0A        	sz z
 116  0090  2800     R  	jmp _L21
 116  0091  2800     R  	jmp _L20
 116  0092              _L19:
 121  0092              #line 121 "C:\Users\Administrator\Desktop\QQ 接收文件\NW2018_16NSOP DEMOCODE for佳点1\NW2018_16NSOP DEMOCODE\Source\Initial.c"
 121  0092  0700     E  	mov a,rb
 121  0093  0083        	mov mp,a
 121  0094  0700     E  	mov a,rc
 121  0095  0084        	mov sbp,a
 121  0096  2000     E  	call _Crom2Prom
 121  0097  0080     E  	mov ra,a
 121  0098  0F80        	mov a,128
 121  0099  0680     E  	andm a,ra
 121  009A  0700     R  	mov a,_Sub_CMPx_Calibration_2[4]
文件：Initial.c    编译器版本 HGASM 0202 页次11

 121  009B  0200     E  	sub a,ra
 121  009C  390A        	snz z
 121  009D  2800     R  	jmp _L20
 121  009E              _L21:
 124  009E              #line 124 "C:\Users\Administrator\Desktop\QQ 接收文件\NW2018_16NSOP DEMOCODE for佳点1\NW2018_16NSOP DEMOCODE\Source\Initial.c"
 124  009E  1080     R  	sz _Sub_CMPx_Calibration_2[5]
 124  009F  2800     R  	jmp _L23
 124  00A0  2800     R  	jmp _L15
 124  00A1              _L20:
 135  00A1              #line 135 "C:\Users\Administrator\Desktop\QQ 接收文件\NW2018_16NSOP DEMOCODE for佳点1\NW2018_16NSOP DEMOCODE\Source\Initial.c"
 135  00A1  0700     R  	mov a,_Sub_CMPx_Calibration_2[6]
 135  00A2  0380     R  	addm a,_Sub_CMPx_Calibration_2[5]
 138  00A3              #line 138 "C:\Users\Administrator\Desktop\QQ 接收文件\NW2018_16NSOP DEMOCODE for佳点1\NW2018_16NSOP DEMOCODE\Source\Initial.c"
 138  00A3  0700     E  	mov a,rb
 138  00A4  0083        	mov mp,a
 138  00A5  0700     E  	mov a,rc
 138  00A6  0084        	mov sbp,a
 136  00A7              #line 136 "C:\Users\Administrator\Desktop\QQ 接收文件\NW2018_16NSOP DEMOCODE for佳点1\NW2018_16NSOP DEMOCODE\Source\Initial.c"
 136  00A7  1E00     R  	snz _Sub_CMPx_Calibration_2[2]
 136  00A8  2800     R  	jmp _L24
 138  00A9              #line 138 "C:\Users\Administrator\Desktop\QQ 接收文件\NW2018_16NSOP DEMOCODE for佳点1\NW2018_16NSOP DEMOCODE\Source\Initial.c"
 138  00A9  2000     E  	call _Crom2Prom
 138  00AA  0080     R  	mov _Sub_CMPx_Calibration_2[7],a
 138  00AB  0700     R  	mov a,_Sub_CMPx_Calibration_2[7]
 138  00AC  0EC0        	and a,192
 138  00AD  0080     E  	mov ra,a
 138  00AE  0700     E  	mov a,ra
 138  00AF  0082        	mov ir,a
 139  00B0              #line 139 "C:\Users\Administrator\Desktop\QQ 接收文件\NW2018_16NSOP DEMOCODE for佳点1\NW2018_16NSOP DEMOCODE\Source\Initial.c"
 139  00B0  0700     R  	mov a,_Sub_CMPx_Calibration_2[0]
 139  00B1  0083        	mov mp,a
 139  00B2  0700     R  	mov a,_Sub_CMPx_Calibration_2[1]
 139  00B3  0084        	mov sbp,a
 139  00B4  2000     E  	call _Crom2Prom
 139  00B5  0080     R  	mov _Sub_CMPx_Calibration_2[7],a
 139  00B6  1900     R  	rra _Sub_CMPx_Calibration_2[5]
 139  00B7  0E7F        	and a,07fh
 139  00B8  0080     E  	mov ra,a
 139  00B9  0F3F        	mov a,63
 139  00BA  0680     E  	andm a,ra
 139  00BB  0700     R  	mov a,_Sub_CMPx_Calibration_2[7]
 139  00BC  0580     E  	orm a,ra
 139  00BD  0700     E  	mov a,ra
 139  00BE  0082        	mov ir,a
 140  00BF              #line 140 "C:\Users\Administrator\Desktop\QQ 接收文件\NW2018_16NSOP DEMOCODE for佳点1\NW2018_16NSOP DEMOCODE\Source\Initial.c"
 140  00BF  0700     R  	mov a,_Sub_CMPx_Calibration_2[0]
 140  00C0  0083        	mov mp,a
 140  00C1  0700     R  	mov a,_Sub_CMPx_Calibration_2[1]
 140  00C2  0084        	mov sbp,a
 140  00C3  2000     E  	call _Crom2Prom
 140  00C4  0080     E  	mov ra,a
 140  00C5  3400     E  	clr ra.7
 140  00C6  2800     R  	jmp _L36
 140  00C7              _L24:
 144  00C7              #line 144 "C:\Users\Administrator\Desktop\QQ 接收文件\NW2018_16NSOP DEMOCODE for佳点1\NW2018_16NSOP DEMOCODE\Source\Initial.c"
 144  00C7  2000     E  	call _Crom2Prom
 144  00C8  0080     R  	mov _Sub_CMPx_Calibration_2[7],a
 144  00C9  0700     R  	mov a,_Sub_CMPx_Calibration_2[7]
 144  00CA  0EE0        	and a,224
 144  00CB  0080     E  	mov ra,a
文件：Initial.c    编译器版本 HGASM 0202 页次12

 144  00CC  0700     E  	mov a,ra
 144  00CD  0082        	mov ir,a
 145  00CE              #line 145 "C:\Users\Administrator\Desktop\QQ 接收文件\NW2018_16NSOP DEMOCODE for佳点1\NW2018_16NSOP DEMOCODE\Source\Initial.c"
 145  00CE  0700     R  	mov a,_Sub_CMPx_Calibration_2[0]
 145  00CF  0083        	mov mp,a
 145  00D0  0700     R  	mov a,_Sub_CMPx_Calibration_2[1]
 145  00D1  0084        	mov sbp,a
 145  00D2  2000     E  	call _Crom2Prom
 145  00D3  0080     R  	mov _Sub_CMPx_Calibration_2[7],a
 145  00D4  1900     R  	rra _Sub_CMPx_Calibration_2[5]
 145  00D5  0E7F        	and a,07fh
 145  00D6  0080     E  	mov ra,a
 145  00D7  0F1F        	mov a,31
 145  00D8  0680     E  	andm a,ra
 145  00D9  0700     R  	mov a,_Sub_CMPx_Calibration_2[7]
 145  00DA  0580     E  	orm a,ra
 145  00DB  0700     E  	mov a,ra
 145  00DC  0082        	mov ir,a
 146  00DD              #line 146 "C:\Users\Administrator\Desktop\QQ 接收文件\NW2018_16NSOP DEMOCODE for佳点1\NW2018_16NSOP DEMOCODE\Source\Initial.c"
 146  00DD  0700     R  	mov a,_Sub_CMPx_Calibration_2[0]
 146  00DE  0083        	mov mp,a
 146  00DF  0700     R  	mov a,_Sub_CMPx_Calibration_2[1]
 146  00E0  0084        	mov sbp,a
 146  00E1  2000     E  	call _Crom2Prom
 146  00E2  0080     E  	mov ra,a
 146  00E3  3400     E  	clr ra.6
 146  00E4              _L36:
 146  00E4  0700     E  	mov a,ra
 146  00E5  0082        	mov ir,a
 146  00E6  0003        	ret
 146  00E7              _Sub_CMPx_Calibration endp
 146  00E7              #line 146 "C:\Users\Administrator\Desktop\QQ 接收文件\NW2018_16NSOP DEMOCODE for佳点1\NW2018_16NSOP DEMOCODE\Source\Initial.c"
 146  00E7              #pragma debug scope 1 1
 146  00E7              ___cmp0c0 equ [104]
 146  00E7              ___cmp0c2 equ [106]
 146  00E7              ___cmp0c3 equ [107]
 146  00E7              ___cmp1c0 equ [109]
 146  00E7              ___cmp1c2 equ [102]
 146  00E7              ___cmp2c0 equ [112]
 146  00E7              ___cmp3c0 equ [115]
 146  00E7              ___cmp3c2 equ [103]
 146  00E7              ___cmp4c0 equ [118]
 146  00E7              ___cmp4c2 equ [120]
 146  00E7              ___cmp1da equ [111]
 146  00E7              ___cmp2da equ [114]
 146  00E7              ___cmp3da equ [117]
 146  00E7              ___cmp4da equ [121]
 146  00E7              public _Sub_CMPx_Initialation
 146  00E7              #pragma debug scope 3 1
 158  00E7              #line 158 "C:\Users\Administrator\Desktop\QQ 接收文件\NW2018_16NSOP DEMOCODE for佳点1\NW2018_16NSOP DEMOCODE\Source\Initial.c"
 158  0000              _Sub_CMPx_Initialation .section 'code'
 158  0000              _Sub_CMPx_Initialation proc
 194  0000              #line 194 "C:\Users\Administrator\Desktop\QQ 接收文件\NW2018_16NSOP DEMOCODE for佳点1\NW2018_16NSOP DEMOCODE\Source\Initial.c"
 194  0000  0F80        	mov a,128
 194  0001  00FA        	mov [122],a
 228  0002              #line 228 "C:\Users\Administrator\Desktop\QQ 接收文件\NW2018_16NSOP DEMOCODE for佳点1\NW2018_16NSOP DEMOCODE\Source\Initial.c"
 228  0002  0FA0        	mov a,160
 228  0003  00E8        	mov [104],a
 250  0004              #line 250 "C:\Users\Administrator\Desktop\QQ 接收文件\NW2018_16NSOP DEMOCODE for佳点1\NW2018_16NSOP DEMOCODE\Source\Initial.c"
 250  0004  0F03        	mov a,3
文件：Initial.c    编译器版本 HGASM 0202 页次13

 250  0005  00EA        	mov [106],a
 274  0006              #line 274 "C:\Users\Administrator\Desktop\QQ 接收文件\NW2018_16NSOP DEMOCODE for佳点1\NW2018_16NSOP DEMOCODE\Source\Initial.c"
 274  0006  1F6B        	clr [107]
 315  0007              #line 315 "C:\Users\Administrator\Desktop\QQ 接收文件\NW2018_16NSOP DEMOCODE for佳点1\NW2018_16NSOP DEMOCODE\Source\Initial.c"
 315  0007  0F32        	mov a,50
 315  0008  00ED        	mov [109],a
 338  0009              #line 338 "C:\Users\Administrator\Desktop\QQ 接收文件\NW2018_16NSOP DEMOCODE for佳点1\NW2018_16NSOP DEMOCODE\Source\Initial.c"
 338  0009  0F40        	mov a,64
 338  000A  00E6        	mov [102],a
 374  000B              #line 374 "C:\Users\Administrator\Desktop\QQ 接收文件\NW2018_16NSOP DEMOCODE for佳点1\NW2018_16NSOP DEMOCODE\Source\Initial.c"
 374  000B  0FB1        	mov a,177
 374  000C  00F0        	mov [112],a
 411  000D              #line 411 "C:\Users\Administrator\Desktop\QQ 接收文件\NW2018_16NSOP DEMOCODE for佳点1\NW2018_16NSOP DEMOCODE\Source\Initial.c"
 411  000D  0F32        	mov a,50
 411  000E  00F3        	mov [115],a
 430  000F              #line 430 "C:\Users\Administrator\Desktop\QQ 接收文件\NW2018_16NSOP DEMOCODE for佳点1\NW2018_16NSOP DEMOCODE\Source\Initial.c"
 430  000F  0F40        	mov a,64
 430  0010  00E7        	mov [103],a
 471  0011              #line 471 "C:\Users\Administrator\Desktop\QQ 接收文件\NW2018_16NSOP DEMOCODE for佳点1\NW2018_16NSOP DEMOCODE\Source\Initial.c"
 471  0011  0F32        	mov a,50
 471  0012  00F6        	mov [118],a
 493  0013              #line 493 "C:\Users\Administrator\Desktop\QQ 接收文件\NW2018_16NSOP DEMOCODE for佳点1\NW2018_16NSOP DEMOCODE\Source\Initial.c"
 493  0013  0F80        	mov a,128
 493  0014  00F8        	mov [120],a
 512  0015              #line 512 "C:\Users\Administrator\Desktop\QQ 接收文件\NW2018_16NSOP DEMOCODE for佳点1\NW2018_16NSOP DEMOCODE\Source\Initial.c"
 512  0015  0FAA        	mov a,170
 512  0016  00EF        	mov [111],a
 515  0017              #line 515 "C:\Users\Administrator\Desktop\QQ 接收文件\NW2018_16NSOP DEMOCODE for佳点1\NW2018_16NSOP DEMOCODE\Source\Initial.c"
 515  0017  0F32        	mov a,50
 515  0018  00F2        	mov [114],a
 518  0019              #line 518 "C:\Users\Administrator\Desktop\QQ 接收文件\NW2018_16NSOP DEMOCODE for佳点1\NW2018_16NSOP DEMOCODE\Source\Initial.c"
 518  0019  0FC8        	mov a,200
 518  001A  00F5        	mov [117],a
 521  001B              #line 521 "C:\Users\Administrator\Desktop\QQ 接收文件\NW2018_16NSOP DEMOCODE for佳点1\NW2018_16NSOP DEMOCODE\Source\Initial.c"
 521  001B  0F96        	mov a,150
 521  001C  00F9        	mov [121],a
 521  001D  0003        	ret
 521  001E              _Sub_CMPx_Initialation endp
 521  001E              #line 521 "C:\Users\Administrator\Desktop\QQ 接收文件\NW2018_16NSOP DEMOCODE for佳点1\NW2018_16NSOP DEMOCODE\Source\Initial.c"
 521  001E              #pragma debug scope 1 1
 521  001E              ___opac1 equ [123]
 521  001E              ___cmp0c1 equ [105]
 521  001E              ___cmp1c1 equ [110]
 521  001E              ___cmp2c1 equ [113]
 521  001E              ___cmp3c1 equ [116]
 521  001E              ___cmp4c1 equ [119]
 521  001E              public _OPA_CMPx_INITIAL
 521  001E              #pragma debug scope 4 1
 533  001E              #line 533 "C:\Users\Administrator\Desktop\QQ 接收文件\NW2018_16NSOP DEMOCODE for佳点1\NW2018_16NSOP DEMOCODE\Source\Initial.c"
 533  0000              _OPA_CMPx_INITIAL .section 'code'
 533  0000              _OPA_CMPx_INITIAL proc
 535  0000              #line 535 "C:\Users\Administrator\Desktop\QQ 接收文件\NW2018_16NSOP DEMOCODE for佳点1\NW2018_16NSOP DEMOCODE\Source\Initial.c"
 535  0000  0F80        	mov a,128
 535  0001  00FA        	mov [122],a
 536  0002              #line 536 "C:\Users\Administrator\Desktop\QQ 接收文件\NW2018_16NSOP DEMOCODE for佳点1\NW2018_16NSOP DEMOCODE\Source\Initial.c"
 536  0002  0F01        	mov a,1
 536  0003  0080     R  	mov _Sub_CMPx_Calibration_2[2],a
 536  0004  0F7B        	mov a,low offset ___opac1
 536  0005  0080     R  	mov _Sub_CMPx_Calibration_2[0],a
 536  0006  0F00        	mov a,high offset ___opac1
文件：Initial.c    编译器版本 HGASM 0202 页次14

 536  0007  0080     R  	mov _Sub_CMPx_Calibration_2[1],a
 536  0008  2000     R  	call _Sub_CMPx_Calibration
 537  0009              #line 537 "C:\Users\Administrator\Desktop\QQ 接收文件\NW2018_16NSOP DEMOCODE for佳点1\NW2018_16NSOP DEMOCODE\Source\Initial.c"
 537  0009  32E8        	set [104].5
 538  000A              #line 538 "C:\Users\Administrator\Desktop\QQ 接收文件\NW2018_16NSOP DEMOCODE for佳点1\NW2018_16NSOP DEMOCODE\Source\Initial.c"
 538  000A  1F00     R  	clr _Sub_CMPx_Calibration_2[2]
 538  000B  0F69        	mov a,low offset ___cmp0c1
 538  000C  0080     R  	mov _Sub_CMPx_Calibration_2[0],a
 538  000D  0F00        	mov a,high offset ___cmp0c1
 538  000E  0080     R  	mov _Sub_CMPx_Calibration_2[1],a
 538  000F  2000     R  	call _Sub_CMPx_Calibration
 539  0010              #line 539 "C:\Users\Administrator\Desktop\QQ 接收文件\NW2018_16NSOP DEMOCODE for佳点1\NW2018_16NSOP DEMOCODE\Source\Initial.c"
 539  0010  32ED        	set [109].5
 540  0011              #line 540 "C:\Users\Administrator\Desktop\QQ 接收文件\NW2018_16NSOP DEMOCODE for佳点1\NW2018_16NSOP DEMOCODE\Source\Initial.c"
 540  0011  1F00     R  	clr _Sub_CMPx_Calibration_2[2]
 540  0012  0F6E        	mov a,low offset ___cmp1c1
 540  0013  0080     R  	mov _Sub_CMPx_Calibration_2[0],a
 540  0014  0F00        	mov a,high offset ___cmp1c1
 540  0015  0080     R  	mov _Sub_CMPx_Calibration_2[1],a
 540  0016  2000     R  	call _Sub_CMPx_Calibration
 541  0017              #line 541 "C:\Users\Administrator\Desktop\QQ 接收文件\NW2018_16NSOP DEMOCODE for佳点1\NW2018_16NSOP DEMOCODE\Source\Initial.c"
 541  0017  32F0        	set [112].5
 542  0018              #line 542 "C:\Users\Administrator\Desktop\QQ 接收文件\NW2018_16NSOP DEMOCODE for佳点1\NW2018_16NSOP DEMOCODE\Source\Initial.c"
 542  0018  1F00     R  	clr _Sub_CMPx_Calibration_2[2]
 542  0019  0F71        	mov a,low offset ___cmp2c1
 542  001A  0080     R  	mov _Sub_CMPx_Calibration_2[0],a
 542  001B  0F00        	mov a,high offset ___cmp2c1
 542  001C  0080     R  	mov _Sub_CMPx_Calibration_2[1],a
 542  001D  2000     R  	call _Sub_CMPx_Calibration
 543  001E              #line 543 "C:\Users\Administrator\Desktop\QQ 接收文件\NW2018_16NSOP DEMOCODE for佳点1\NW2018_16NSOP DEMOCODE\Source\Initial.c"
 543  001E  32F3        	set [115].5
 544  001F              #line 544 "C:\Users\Administrator\Desktop\QQ 接收文件\NW2018_16NSOP DEMOCODE for佳点1\NW2018_16NSOP DEMOCODE\Source\Initial.c"
 544  001F  1F00     R  	clr _Sub_CMPx_Calibration_2[2]
 544  0020  0F74        	mov a,low offset ___cmp3c1
 544  0021  0080     R  	mov _Sub_CMPx_Calibration_2[0],a
 544  0022  0F00        	mov a,high offset ___cmp3c1
 544  0023  0080     R  	mov _Sub_CMPx_Calibration_2[1],a
 544  0024  2000     R  	call _Sub_CMPx_Calibration
 545  0025              #line 545 "C:\Users\Administrator\Desktop\QQ 接收文件\NW2018_16NSOP DEMOCODE for佳点1\NW2018_16NSOP DEMOCODE\Source\Initial.c"
 545  0025  32F6        	set [118].5
 546  0026              #line 546 "C:\Users\Administrator\Desktop\QQ 接收文件\NW2018_16NSOP DEMOCODE for佳点1\NW2018_16NSOP DEMOCODE\Source\Initial.c"
 546  0026  1F00     R  	clr _Sub_CMPx_Calibration_2[2]
 546  0027  0F77        	mov a,low offset ___cmp4c1
 546  0028  0080     R  	mov _Sub_CMPx_Calibration_2[0],a
 546  0029  0F00        	mov a,high offset ___cmp4c1
 546  002A  0080     R  	mov _Sub_CMPx_Calibration_2[1],a
 546  002B  2000     R  	call _Sub_CMPx_Calibration
 548  002C              #line 548 "C:\Users\Administrator\Desktop\QQ 接收文件\NW2018_16NSOP DEMOCODE for佳点1\NW2018_16NSOP DEMOCODE\Source\Initial.c"
 548  002C  2000     R  	call _Sub_CMPx_Initialation
 548  002D  0003        	ret
 548  002E              _OPA_CMPx_INITIAL endp
 548  002E              #line 548 "C:\Users\Administrator\Desktop\QQ 接收文件\NW2018_16NSOP DEMOCODE for佳点1\NW2018_16NSOP DEMOCODE\Source\Initial.c"
 548  002E              #pragma debug scope 1 1
 548  002E              ___scc equ [15]
 548  002E              ___hircc equ [108]
 548  002E              ___wdtc equ [31]
 548  002E              ___lvrc equ [33]
 548  002E              ___lvdc equ [34]
 548  002E              public _SYS_INITIAL
 548  002E              #pragma debug scope 5 1
文件：Initial.c    编译器版本 HGASM 0202 页次15

 576  002E              #line 576 "C:\Users\Administrator\Desktop\QQ 接收文件\NW2018_16NSOP DEMOCODE for佳点1\NW2018_16NSOP DEMOCODE\Source\Initial.c"
 576  0000              _SYS_INITIAL .section 'code'
 576  0000              _SYS_INITIAL proc
 617  0000              #line 617 "C:\Users\Administrator\Desktop\QQ 接收文件\NW2018_16NSOP DEMOCODE for佳点1\NW2018_16NSOP DEMOCODE\Source\Initial.c"
 617  0000  1F0F        	clr [15]
 618  0001              #line 618 "C:\Users\Administrator\Desktop\QQ 接收文件\NW2018_16NSOP DEMOCODE for佳点1\NW2018_16NSOP DEMOCODE\Source\Initial.c"
 618  0001  0F01        	mov a,1
 618  0002  00EC        	mov [108],a
 618  0003              _L42:
 620  0003              #line 620 "C:\Users\Administrator\Desktop\QQ 接收文件\NW2018_16NSOP DEMOCODE for佳点1\NW2018_16NSOP DEMOCODE\Source\Initial.c"
 620  0003  3CEC        	sz [108].1
 620  0004  2800     R  	jmp _L44
 622  0005              #line 622 "C:\Users\Administrator\Desktop\QQ 接收文件\NW2018_16NSOP DEMOCODE for佳点1\NW2018_16NSOP DEMOCODE\Source\Initial.c"
 622  0005              ;# 622 "C:\Users\Administrator\Desktop\QQ 接收文件\NW2018_16NSOP DEMOCODE for佳点1\NW2018_16NSOP DEMOCODE\Source\Initial.c" 1
 622  0005  0001        	clr wdt
 622  0006  2800     R  	jmp _L42
 622  0007              _L44:
 625  0007              #line 625 "C:\Users\Administrator\Desktop\QQ 接收文件\NW2018_16NSOP DEMOCODE for佳点1\NW2018_16NSOP DEMOCODE\Source\Initial.c"
 625  0007  0FAF        	mov a,175
 625  0008  009F        	mov [31],a
 626  0009              #line 626 "C:\Users\Administrator\Desktop\QQ 接收文件\NW2018_16NSOP DEMOCODE for佳点1\NW2018_16NSOP DEMOCODE\Source\Initial.c"
 626  0009  0F55        	mov a,85
 626  000A  00A1        	mov [33],a
 627  000B              #line 627 "C:\Users\Administrator\Desktop\QQ 接收文件\NW2018_16NSOP DEMOCODE for佳点1\NW2018_16NSOP DEMOCODE\Source\Initial.c"
 627  000B  0F1D        	mov a,29
 627  000C  00A2        	mov [34],a
 627  000D  0003        	ret
 627  000E              _SYS_INITIAL endp
 627  000E              #line 627 "C:\Users\Administrator\Desktop\QQ 接收文件\NW2018_16NSOP DEMOCODE for佳点1\NW2018_16NSOP DEMOCODE\Source\Initial.c"
 627  000E              #pragma debug scope 1 1
 627  000E              ___ctrl equ [99]
 627  000E              ___pas0 equ [124]
 627  000E              ___pas1 equ [125]
 627  000E              ___papu equ [22]
 627  000E              ___pac equ [21]
 627  000E              ___pa equ [20]
 627  000E              ___pcs0 equ [100]
 627  000E              ___pcs1 equ [101]
 627  000E              ___pcpu equ [41]
 627  000E              ___pcc equ [40]
 627  000E              public _IO_INITIAL
 627  000E              #pragma debug scope 6 1
 635  000E              #line 635 "C:\Users\Administrator\Desktop\QQ 接收文件\NW2018_16NSOP DEMOCODE for佳点1\NW2018_16NSOP DEMOCODE\Source\Initial.c"
 635  0000              _IO_INITIAL .section 'code'
 635  0000              _IO_INITIAL proc
 646  0000              #line 646 "C:\Users\Administrator\Desktop\QQ 接收文件\NW2018_16NSOP DEMOCODE for佳点1\NW2018_16NSOP DEMOCODE\Source\Initial.c"
 646  0000  0F20        	mov a,32
 646  0001  00E3        	mov [99],a
 672  0002              #line 672 "C:\Users\Administrator\Desktop\QQ 接收文件\NW2018_16NSOP DEMOCODE for佳点1\NW2018_16NSOP DEMOCODE\Source\Initial.c"
 672  0002  0F3E        	mov a,62
 672  0003  00FC        	mov [124],a
 673  0004              #line 673 "C:\Users\Administrator\Desktop\QQ 接收文件\NW2018_16NSOP DEMOCODE for佳点1\NW2018_16NSOP DEMOCODE\Source\Initial.c"
 673  0004  0FF3        	mov a,243
 673  0005  00FD        	mov [125],a
 675  0006              #line 675 "C:\Users\Administrator\Desktop\QQ 接收文件\NW2018_16NSOP DEMOCODE for佳点1\NW2018_16NSOP DEMOCODE\Source\Initial.c"
 675  0006  0F0D        	mov a,13
 675  0007  0096        	mov [22],a
 676  0008              #line 676 "C:\Users\Administrator\Desktop\QQ 接收文件\NW2018_16NSOP DEMOCODE for佳点1\NW2018_16NSOP DEMOCODE\Source\Initial.c"
 676  0008  0FDD        	mov a,221
 676  0009  0095        	mov [21],a
文件：Initial.c    编译器版本 HGASM 0202 页次16

 678  000A              #line 678 "C:\Users\Administrator\Desktop\QQ 接收文件\NW2018_16NSOP DEMOCODE for佳点1\NW2018_16NSOP DEMOCODE\Source\Initial.c"
 678  000A  3695        	clr [21].5
 679  000B              #line 679 "C:\Users\Administrator\Desktop\QQ 接收文件\NW2018_16NSOP DEMOCODE for佳点1\NW2018_16NSOP DEMOCODE\Source\Initial.c"
 679  000B  3694        	clr [20].5
 699  000C              #line 699 "C:\Users\Administrator\Desktop\QQ 接收文件\NW2018_16NSOP DEMOCODE for佳点1\NW2018_16NSOP DEMOCODE\Source\Initial.c"
 699  000C  0FBF        	mov a,191
 699  000D  00E4        	mov [100],a
 701  000E              #line 701 "C:\Users\Administrator\Desktop\QQ 接收文件\NW2018_16NSOP DEMOCODE for佳点1\NW2018_16NSOP DEMOCODE\Source\Initial.c"
 701  000E  0F03        	mov a,3
 701  000F  00E5        	mov [101],a
 703  0010              #line 703 "C:\Users\Administrator\Desktop\QQ 接收文件\NW2018_16NSOP DEMOCODE for佳点1\NW2018_16NSOP DEMOCODE\Source\Initial.c"
 703  0010  1F29        	clr [41]
 704  0011              #line 704 "C:\Users\Administrator\Desktop\QQ 接收文件\NW2018_16NSOP DEMOCODE for佳点1\NW2018_16NSOP DEMOCODE\Source\Initial.c"
 704  0011  0F1F        	mov a,31
 704  0012  00A8        	mov [40],a
 704  0013  0003        	ret
 704  0014              _IO_INITIAL endp
 704  0014              #line 704 "C:\Users\Administrator\Desktop\QQ 接收文件\NW2018_16NSOP DEMOCODE for佳点1\NW2018_16NSOP DEMOCODE\Source\Initial.c"
 704  0014              #pragma debug scope 1 1
 704  0014              ___tbc equ [36]
 704  0014              ___integ equ [35]
 704  0014              ___intc2 equ [18]
 704  0014              ___mfi0 equ [24]
 704  0014              ___intc1 equ [17]
 704  0014              ___intc0 equ [16]
 704  0014              ___intc3 equ [19]
 704  0014              public _INTERRUPT_INITIAL
 704  0014              #pragma debug scope 7 1
 727  0014              #line 727 "C:\Users\Administrator\Desktop\QQ 接收文件\NW2018_16NSOP DEMOCODE for佳点1\NW2018_16NSOP DEMOCODE\Source\Initial.c"
 727  0000              _INTERRUPT_INITIAL .section 'code'
 727  0000              _INTERRUPT_INITIAL proc
 821  0000              #line 821 "C:\Users\Administrator\Desktop\QQ 接收文件\NW2018_16NSOP DEMOCODE for佳点1\NW2018_16NSOP DEMOCODE\Source\Initial.c"
 821  0000  0F50        	mov a,80
 821  0001  00A4        	mov [36],a
 822  0002              #line 822 "C:\Users\Administrator\Desktop\QQ 接收文件\NW2018_16NSOP DEMOCODE for佳点1\NW2018_16NSOP DEMOCODE\Source\Initial.c"
 822  0002  1F23        	clr [35]
 823  0003              #line 823 "C:\Users\Administrator\Desktop\QQ 接收文件\NW2018_16NSOP DEMOCODE for佳点1\NW2018_16NSOP DEMOCODE\Source\Initial.c"
 823  0003  3512        	clr [18].2
 824  0004              #line 824 "C:\Users\Administrator\Desktop\QQ 接收文件\NW2018_16NSOP DEMOCODE for佳点1\NW2018_16NSOP DEMOCODE\Source\Initial.c"
 824  0004  3518        	clr [24].2
 825  0005              #line 825 "C:\Users\Administrator\Desktop\QQ 接收文件\NW2018_16NSOP DEMOCODE for佳点1\NW2018_16NSOP DEMOCODE\Source\Initial.c"
 825  0005  1F11        	clr [17]
 826  0006              #line 826 "C:\Users\Administrator\Desktop\QQ 接收文件\NW2018_16NSOP DEMOCODE for佳点1\NW2018_16NSOP DEMOCODE\Source\Initial.c"
 826  0006  0F01        	mov a,1
 826  0007  0090        	mov [16],a
 827  0008              #line 827 "C:\Users\Administrator\Desktop\QQ 接收文件\NW2018_16NSOP DEMOCODE for佳点1\NW2018_16NSOP DEMOCODE\Source\Initial.c"
 827  0008  3113        	set [19].2
 827  0009  0003        	ret
 827  000A              _INTERRUPT_INITIAL endp
 827  000A              #line 827 "C:\Users\Administrator\Desktop\QQ 接收文件\NW2018_16NSOP DEMOCODE for佳点1\NW2018_16NSOP DEMOCODE\Source\Initial.c"
 827  000A              #pragma debug scope 1 1
 827  000A              ___mp1h equ [4]
 827  000A              ___mp1l equ [3]
 827  000A              ___acc equ [5]
 827  000A              ___iar1 equ [2]
 827  000A              public _RAM_INITIAL
 827  000A              #pragma debug scope 8 1
 836  000A              #line 836 "C:\Users\Administrator\Desktop\QQ 接收文件\NW2018_16NSOP DEMOCODE for佳点1\NW2018_16NSOP DEMOCODE\Source\Initial.c"
 836  0000              _RAM_INITIAL .section 'code'
 836  0000              _RAM_INITIAL proc
文件：Initial.c    编译器版本 HGASM 0202 页次17

 837  0000              #line 837 "C:\Users\Administrator\Desktop\QQ 接收文件\NW2018_16NSOP DEMOCODE for佳点1\NW2018_16NSOP DEMOCODE\Source\Initial.c"
 837  0000  1F04        	clr [4]
 838  0001              #line 838 "C:\Users\Administrator\Desktop\QQ 接收文件\NW2018_16NSOP DEMOCODE for佳点1\NW2018_16NSOP DEMOCODE\Source\Initial.c"
 838  0001  0F80        	mov a,128
 838  0002  0083        	mov [3],a
 838  0003  1F05        	clr [5]
 838  0004              _L48:
 838  0004              #line 838 "C:\Users\Administrator\Desktop\QQ 接收文件\NW2018_16NSOP DEMOCODE for佳点1\NW2018_16NSOP DEMOCODE\Source\Initial.c"
 838  0004  3F85        	sz [5].7
 838  0005  2800     R  	jmp _L52
 840  0006              #line 840 "C:\Users\Administrator\Desktop\QQ 接收文件\NW2018_16NSOP DEMOCODE for佳点1\NW2018_16NSOP DEMOCODE\Source\Initial.c"
 840  0006  1F02        	clr [2]
 838  0007              #line 838 "C:\Users\Administrator\Desktop\QQ 接收文件\NW2018_16NSOP DEMOCODE for佳点1\NW2018_16NSOP DEMOCODE\Source\Initial.c"
 838  0007  1485        	inc [5]
 838  0008  1483        	inc [3]
 838  0009  2800     R  	jmp _L48
 838  000A              _L52:
 842  000A              #line 842 "C:\Users\Administrator\Desktop\QQ 接收文件\NW2018_16NSOP DEMOCODE for佳点1\NW2018_16NSOP DEMOCODE\Source\Initial.c"
 842  000A  0F01        	mov a,1
 842  000B  0084        	mov [4],a
 844  000C              #line 844 "C:\Users\Administrator\Desktop\QQ 接收文件\NW2018_16NSOP DEMOCODE for佳点1\NW2018_16NSOP DEMOCODE\Source\Initial.c"
 844  000C  0F80        	mov a,128
 844  000D  0083        	mov [3],a
 844  000E  1F05        	clr [5]
 844  000F  2800     R  	jmp _L50
 844  0010              _L51:
 846  0010              #line 846 "C:\Users\Administrator\Desktop\QQ 接收文件\NW2018_16NSOP DEMOCODE for佳点1\NW2018_16NSOP DEMOCODE\Source\Initial.c"
 846  0010  1F02        	clr [2]
 844  0011              #line 844 "C:\Users\Administrator\Desktop\QQ 接收文件\NW2018_16NSOP DEMOCODE for佳点1\NW2018_16NSOP DEMOCODE\Source\Initial.c"
 844  0011  1485        	inc [5]
 844  0012  1483        	inc [3]
 844  0013              _L50:
 844  0013  3B85        	snz [5].7
 844  0014  2800     R  	jmp _L51
 844  0015  0003        	ret
 844  0016              _RAM_INITIAL endp
 844  0016              #line 844 "C:\Users\Administrator\Desktop\QQ 接收文件\NW2018_16NSOP DEMOCODE for佳点1\NW2018_16NSOP DEMOCODE\Source\Initial.c"
 844  0016              #pragma debug scope 1 1
 844  0016              ___sadc0 equ [66]
 844  0016              ___sadc1 equ [67]
 844  0016              ___sadc2 equ [68]
 844  0016              public _ADC_INITIAL
 844  0016              #pragma debug scope 9 1
 858  0016              #line 858 "C:\Users\Administrator\Desktop\QQ 接收文件\NW2018_16NSOP DEMOCODE for佳点1\NW2018_16NSOP DEMOCODE\Source\Initial.c"
 858  0000              _ADC_INITIAL .section 'code'
 858  0000              _ADC_INITIAL proc
 896  0000              #line 896 "C:\Users\Administrator\Desktop\QQ 接收文件\NW2018_16NSOP DEMOCODE for佳点1\NW2018_16NSOP DEMOCODE\Source\Initial.c"
 896  0000  0F20        	mov a,32
 896  0001  00C2        	mov [66],a
 897  0002              #line 897 "C:\Users\Administrator\Desktop\QQ 接收文件\NW2018_16NSOP DEMOCODE for佳点1\NW2018_16NSOP DEMOCODE\Source\Initial.c"
 897  0002  0F04        	mov a,4
 897  0003  00C3        	mov [67],a
 899  0004              #line 899 "C:\Users\Administrator\Desktop\QQ 接收文件\NW2018_16NSOP DEMOCODE for佳点1\NW2018_16NSOP DEMOCODE\Source\Initial.c"
 899  0004  0F13        	mov a,19
 899  0005  00C4        	mov [68],a
 899  0006  0003        	ret
 899  0007              _ADC_INITIAL endp
 899  0007              #line 899 "C:\Users\Administrator\Desktop\QQ 接收文件\NW2018_16NSOP DEMOCODE for佳点1\NW2018_16NSOP DEMOCODE\Source\Initial.c"
 899  0007              #pragma debug scope 1 1
 899  0007              ___ppgc equ [73]
文件：Initial.c    编译器版本 HGASM 0202 页次18

 899  0007              ___ppgpc equ [74]
 899  0007              ___ppgta equ [75]
 899  0007              ___ppgtb equ [76]
 899  0007              ___ppgtex equ [77]
 899  0007              ___pwlt equ [78]
 899  0007              ___ppgctc equ [96]
 899  0007              public _PPG_INITIAL
 899  0007              #pragma debug scope 10 1
 908  0007              #line 908 "C:\Users\Administrator\Desktop\QQ 接收文件\NW2018_16NSOP DEMOCODE for佳点1\NW2018_16NSOP DEMOCODE\Source\Initial.c"
 908  0000              _PPG_INITIAL .section 'code'
 908  0000              _PPG_INITIAL proc
 935  0000              #line 935 "C:\Users\Administrator\Desktop\QQ 接收文件\NW2018_16NSOP DEMOCODE for佳点1\NW2018_16NSOP DEMOCODE\Source\Initial.c"
 935  0000  0F01        	mov a,1
 935  0001  00C9        	mov [73],a
 944  0002              #line 944 "C:\Users\Administrator\Desktop\QQ 接收文件\NW2018_16NSOP DEMOCODE for佳点1\NW2018_16NSOP DEMOCODE\Source\Initial.c"
 944  0002  0F55        	mov a,85
 944  0003  00CA        	mov [74],a
 949  0004              #line 949 "C:\Users\Administrator\Desktop\QQ 接收文件\NW2018_16NSOP DEMOCODE for佳点1\NW2018_16NSOP DEMOCODE\Source\Initial.c"
 949  0004  0F80        	mov a,128
 949  0005  00CB        	mov [75],a
 954  0006              #line 954 "C:\Users\Administrator\Desktop\QQ 接收文件\NW2018_16NSOP DEMOCODE for佳点1\NW2018_16NSOP DEMOCODE\Source\Initial.c"
 954  0006  0F80        	mov a,128
 954  0007  00CC        	mov [76],a
 961  0008              #line 961 "C:\Users\Administrator\Desktop\QQ 接收文件\NW2018_16NSOP DEMOCODE for佳点1\NW2018_16NSOP DEMOCODE\Source\Initial.c"
 961  0008  0F11        	mov a,17
 961  0009  00CD        	mov [77],a
 968  000A              #line 968 "C:\Users\Administrator\Desktop\QQ 接收文件\NW2018_16NSOP DEMOCODE for佳点1\NW2018_16NSOP DEMOCODE\Source\Initial.c"
 968  000A  0F10        	mov a,16
 968  000B  00CE        	mov [78],a
 982  000C              #line 982 "C:\Users\Administrator\Desktop\QQ 接收文件\NW2018_16NSOP DEMOCODE for佳点1\NW2018_16NSOP DEMOCODE\Source\Initial.c"
 982  000C  0F07        	mov a,7
 982  000D  00E0        	mov [96],a
 982  000E  0003        	ret
 982  000F              _PPG_INITIAL endp
 982  000F              #line 982 "C:\Users\Administrator\Desktop\QQ 接收文件\NW2018_16NSOP DEMOCODE for佳点1\NW2018_16NSOP DEMOCODE\Source\Initial.c"
 982  000F              #pragma debug scope 1 1
 982  000F              ___pckc equ [98]
 982  000F              public _PCK_INITIAL
 982  000F              #pragma debug scope 11 1
 990  000F              #line 990 "C:\Users\Administrator\Desktop\QQ 接收文件\NW2018_16NSOP DEMOCODE for佳点1\NW2018_16NSOP DEMOCODE\Source\Initial.c"
 990  0000              _PCK_INITIAL .section 'code'
 990  0000              _PCK_INITIAL proc
1004  0000              #line 1004 "C:\Users\Administrator\Desktop\QQ 接收文件\NW2018_16NSOP DEMOCODE for佳点1\NW2018_16NSOP DEMOCODE\Source\Initial.c"
1004  0000  0F17        	mov a,23
1004  0001  00E2        	mov [98],a
1004  0002  0003        	ret
1004  0003              _PCK_INITIAL endp
1004  0003              #line 1004 "C:\Users\Administrator\Desktop\QQ 接收文件\NW2018_16NSOP DEMOCODE for佳点1\NW2018_16NSOP DEMOCODE\Source\Initial.c"
1004  0003              #pragma debug scope 1 1
1004  0003              ___tmrc equ [127]
1004  0003              ___tmr equ [126]
1004  0003              public _TMR_INITIAL
1004  0003              #pragma debug scope 12 1
1012  0003              #line 1012 "C:\Users\Administrator\Desktop\QQ 接收文件\NW2018_16NSOP DEMOCODE for佳点1\NW2018_16NSOP DEMOCODE\Source\Initial.c"
1012  0000              _TMR_INITIAL .section 'code'
1012  0000              _TMR_INITIAL proc
1024  0000              #line 1024 "C:\Users\Administrator\Desktop\QQ 接收文件\NW2018_16NSOP DEMOCODE for佳点1\NW2018_16NSOP DEMOCODE\Source\Initial.c"
1024  0000  0F02        	mov a,2
1024  0001  00FF        	mov [127],a
1025  0002              #line 1025 "C:\Users\Administrator\Desktop\QQ 接收文件\NW2018_16NSOP DEMOCODE for佳点1\NW2018_16NSOP DEMOCODE\Source\Initial.c"
文件：Initial.c    编译器版本 HGASM 0202 页次19

1025  0002  0FCE        	mov a,206
1025  0003  00FE        	mov [126],a
1025  0004  0003        	ret
1025  0005              _TMR_INITIAL endp
1025  0005              #line 1025 "C:\Users\Administrator\Desktop\QQ 接收文件\NW2018_16NSOP DEMOCODE for佳点1\NW2018_16NSOP DEMOCODE\Source\Initial.c"
1025  0005              #pragma debug scope 1 1
1025  0005              ___ctm0al equ [46]
1025  0005              ___ctm0ah equ [47]
1025  0005              ___ctm0c0 equ [42]
1025  0005              ___ctm0c1 equ [43]
1025  0005              ___mfi1 equ [28]
1025  0005              public _CTM0_INITIAL
1025  0005              #pragma debug scope 13 1
1034  0005              #line 1034 "C:\Users\Administrator\Desktop\QQ 接收文件\NW2018_16NSOP DEMOCODE for佳点1\NW2018_16NSOP DEMOCODE\Source\Initial.c"
1034  0000              _CTM0_INITIAL .section 'code'
1034  0000              _CTM0_INITIAL proc
1059  0000              #line 1059 "C:\Users\Administrator\Desktop\QQ 接收文件\NW2018_16NSOP DEMOCODE for佳点1\NW2018_16NSOP DEMOCODE\Source\Initial.c"
1059  0000  0FF4        	mov a,244
1059  0001  00AE        	mov [46],a
1060  0002              #line 1060 "C:\Users\Administrator\Desktop\QQ 接收文件\NW2018_16NSOP DEMOCODE for佳点1\NW2018_16NSOP DEMOCODE\Source\Initial.c"
1060  0002  0F01        	mov a,1
1060  0003  00AF        	mov [47],a
1062  0004              #line 1062 "C:\Users\Administrator\Desktop\QQ 接收文件\NW2018_16NSOP DEMOCODE for佳点1\NW2018_16NSOP DEMOCODE\Source\Initial.c"
1062  0004  1F2A        	clr [42]
1063  0005              #line 1063 "C:\Users\Administrator\Desktop\QQ 接收文件\NW2018_16NSOP DEMOCODE for佳点1\NW2018_16NSOP DEMOCODE\Source\Initial.c"
1063  0005  0FC1        	mov a,193
1063  0006  00AB        	mov [43],a
1067  0007              #line 1067 "C:\Users\Administrator\Desktop\QQ 接收文件\NW2018_16NSOP DEMOCODE for佳点1\NW2018_16NSOP DEMOCODE\Source\Initial.c"
1067  0007  341C        	clr [28].0
1068  0008              #line 1068 "C:\Users\Administrator\Desktop\QQ 接收文件\NW2018_16NSOP DEMOCODE for佳点1\NW2018_16NSOP DEMOCODE\Source\Initial.c"
1068  0008  309C        	set [28].1
1069  0009              #line 1069 "C:\Users\Administrator\Desktop\QQ 接收文件\NW2018_16NSOP DEMOCODE for佳点1\NW2018_16NSOP DEMOCODE\Source\Initial.c"
1069  0009  3093        	set [19].1
1069  000A  0003        	ret
1069  000B              _CTM0_INITIAL endp
1069  000B              #line 1069 "C:\Users\Administrator\Desktop\QQ 接收文件\NW2018_16NSOP DEMOCODE for佳点1\NW2018_16NSOP DEMOCODE\Source\Initial.c"
1069  000B              #pragma debug scope 1 1
1069  000B              ___ctm1al equ [84]
1069  000B              ___ctm1ah equ [85]
1069  000B              ___ctm1c0 equ [80]
1069  000B              ___ctm1c1 equ [81]
1069  000B              ___mfi2 equ [29]
1069  000B              public _CTM1_INITIAL
1069  000B              #pragma debug scope 14 1
1082  000B              #line 1082 "C:\Users\Administrator\Desktop\QQ 接收文件\NW2018_16NSOP DEMOCODE for佳点1\NW2018_16NSOP DEMOCODE\Source\Initial.c"
1082  0000              _CTM1_INITIAL .section 'code'
1082  0000              _CTM1_INITIAL proc
1107  0000              #line 1107 "C:\Users\Administrator\Desktop\QQ 接收文件\NW2018_16NSOP DEMOCODE for佳点1\NW2018_16NSOP DEMOCODE\Source\Initial.c"
1107  0000  0FF4        	mov a,244
1107  0001  00D4        	mov [84],a
1108  0002              #line 1108 "C:\Users\Administrator\Desktop\QQ 接收文件\NW2018_16NSOP DEMOCODE for佳点1\NW2018_16NSOP DEMOCODE\Source\Initial.c"
1108  0002  0F01        	mov a,1
1108  0003  00D5        	mov [85],a
1110  0004              #line 1110 "C:\Users\Administrator\Desktop\QQ 接收文件\NW2018_16NSOP DEMOCODE for佳点1\NW2018_16NSOP DEMOCODE\Source\Initial.c"
1110  0004  1F50        	clr [80]
1111  0005              #line 1111 "C:\Users\Administrator\Desktop\QQ 接收文件\NW2018_16NSOP DEMOCODE for佳点1\NW2018_16NSOP DEMOCODE\Source\Initial.c"
1111  0005  0FC1        	mov a,193
1111  0006  00D1        	mov [81],a
1113  0007              #line 1113 "C:\Users\Administrator\Desktop\QQ 接收文件\NW2018_16NSOP DEMOCODE for佳点1\NW2018_16NSOP DEMOCODE\Source\Initial.c"
1113  0007  31D0        	set [80].3
文件：Initial.c    编译器版本 HGASM 0202 页次20

1115  0008              #line 1115 "C:\Users\Administrator\Desktop\QQ 接收文件\NW2018_16NSOP DEMOCODE for佳点1\NW2018_16NSOP DEMOCODE\Source\Initial.c"
1115  0008  341D        	clr [29].0
1116  0009              #line 1116 "C:\Users\Administrator\Desktop\QQ 接收文件\NW2018_16NSOP DEMOCODE for佳点1\NW2018_16NSOP DEMOCODE\Source\Initial.c"
1116  0009  309D        	set [29].1
1117  000A              #line 1117 "C:\Users\Administrator\Desktop\QQ 接收文件\NW2018_16NSOP DEMOCODE for佳点1\NW2018_16NSOP DEMOCODE\Source\Initial.c"
1117  000A  3113        	set [19].2
1117  000B  0003        	ret
1117  000C              _CTM1_INITIAL endp
1117  000C              #line 1117 "C:\Users\Administrator\Desktop\QQ 接收文件\NW2018_16NSOP DEMOCODE for佳点1\NW2018_16NSOP DEMOCODE\Source\Initial.c"
1117  000C              #pragma debug scope 1 1
1117  000C              ___ptm0al equ [52]
1117  000C              ___ptm0ah equ [53]
1117  000C              ___ptm0rpl equ [54]
1117  000C              ___ptm0rph equ [55]
1117  000C              ___ptm0c0 equ [48]
1117  000C              ___ptm0c1 equ [49]
1117  000C              public _PTM0_INITIAL
1117  000C              #pragma debug scope 15 1
1127  000C              #line 1127 "C:\Users\Administrator\Desktop\QQ 接收文件\NW2018_16NSOP DEMOCODE for佳点1\NW2018_16NSOP DEMOCODE\Source\Initial.c"
1127  0000              _PTM0_INITIAL .section 'code'
1127  0000              _PTM0_INITIAL proc
1150  0000              #line 1150 "C:\Users\Administrator\Desktop\QQ 接收文件\NW2018_16NSOP DEMOCODE for佳点1\NW2018_16NSOP DEMOCODE\Source\Initial.c"
1150  0000  0FE8        	mov a,232
1150  0001  00B4        	mov [52],a
1151  0002              #line 1151 "C:\Users\Administrator\Desktop\QQ 接收文件\NW2018_16NSOP DEMOCODE for佳点1\NW2018_16NSOP DEMOCODE\Source\Initial.c"
1151  0002  0F03        	mov a,3
1151  0003  00B5        	mov [53],a
1153  0004              #line 1153 "C:\Users\Administrator\Desktop\QQ 接收文件\NW2018_16NSOP DEMOCODE for佳点1\NW2018_16NSOP DEMOCODE\Source\Initial.c"
1153  0004  0FF4        	mov a,244
1153  0005  00B6        	mov [54],a
1154  0006              #line 1154 "C:\Users\Administrator\Desktop\QQ 接收文件\NW2018_16NSOP DEMOCODE for佳点1\NW2018_16NSOP DEMOCODE\Source\Initial.c"
1154  0006  0F01        	mov a,1
1154  0007  00B7        	mov [55],a
1156  0008              #line 1156 "C:\Users\Administrator\Desktop\QQ 接收文件\NW2018_16NSOP DEMOCODE for佳点1\NW2018_16NSOP DEMOCODE\Source\Initial.c"
1156  0008  0F20        	mov a,32
1156  0009  00B0        	mov [48],a
1157  000A              #line 1157 "C:\Users\Administrator\Desktop\QQ 接收文件\NW2018_16NSOP DEMOCODE for佳点1\NW2018_16NSOP DEMOCODE\Source\Initial.c"
1157  000A  0FC1        	mov a,193
1157  000B  00B1        	mov [49],a
1159  000C              #line 1159 "C:\Users\Administrator\Desktop\QQ 接收文件\NW2018_16NSOP DEMOCODE for佳点1\NW2018_16NSOP DEMOCODE\Source\Initial.c"
1159  000C  31B0        	set [48].3
1161  000D              #line 1161 "C:\Users\Administrator\Desktop\QQ 接收文件\NW2018_16NSOP DEMOCODE for佳点1\NW2018_16NSOP DEMOCODE\Source\Initial.c"
1161  000D  3418        	clr [24].0
1162  000E              #line 1162 "C:\Users\Administrator\Desktop\QQ 接收文件\NW2018_16NSOP DEMOCODE for佳点1\NW2018_16NSOP DEMOCODE\Source\Initial.c"
1162  000E  3098        	set [24].1
1163  000F              #line 1163 "C:\Users\Administrator\Desktop\QQ 接收文件\NW2018_16NSOP DEMOCODE for佳点1\NW2018_16NSOP DEMOCODE\Source\Initial.c"
1163  000F  3092        	set [18].1
1163  0010  0003        	ret
1163  0011              _PTM0_INITIAL endp
1163  0011              #line 1163 "C:\Users\Administrator\Desktop\QQ 接收文件\NW2018_16NSOP DEMOCODE for佳点1\NW2018_16NSOP DEMOCODE\Source\Initial.c"
1163  0011              #pragma debug scope 1 1
1163  0011              ___pbs0 equ [72]
1163  0011              ___u0sr equ [88]
1163  0011              ___u0cr1 equ [89]
1163  0011              ___u0cr2 equ [90]
1163  0011              ___brg0 equ [92]
1163  0011              public _UART_INITIAL
1163  0011              #pragma debug scope 16 1
1245  0011              #line 1245 "C:\Users\Administrator\Desktop\QQ 接收文件\NW2018_16NSOP DEMOCODE for佳点1\NW2018_16NSOP DEMOCODE\Source\Initial.c"
1245  0000              _UART_INITIAL .section 'code'
文件：Initial.c    编译器版本 HGASM 0202 页次21

1245  0000              _UART_INITIAL proc
1246  0000              #line 1246 "C:\Users\Administrator\Desktop\QQ 接收文件\NW2018_16NSOP DEMOCODE for佳点1\NW2018_16NSOP DEMOCODE\Source\Initial.c"
1246  0000  0F0F        	mov a,15
1246  0001  00C8        	mov [72],a
1248  0002              #line 1248 "C:\Users\Administrator\Desktop\QQ 接收文件\NW2018_16NSOP DEMOCODE for佳点1\NW2018_16NSOP DEMOCODE\Source\Initial.c"
1248  0002  0F0B        	mov a,11
1248  0003  00D8        	mov [88],a
1308  0004              #line 1308 "C:\Users\Administrator\Desktop\QQ 接收文件\NW2018_16NSOP DEMOCODE for佳点1\NW2018_16NSOP DEMOCODE\Source\Initial.c"
1308  0004  0F80        	mov a,128
1308  0005  00D9        	mov [89],a
1361  0006              #line 1361 "C:\Users\Administrator\Desktop\QQ 接收文件\NW2018_16NSOP DEMOCODE for佳点1\NW2018_16NSOP DEMOCODE\Source\Initial.c"
1361  0006  0FC4        	mov a,196
1361  0007  00DA        	mov [90],a
1419  0008              #line 1419 "C:\Users\Administrator\Desktop\QQ 接收文件\NW2018_16NSOP DEMOCODE for佳点1\NW2018_16NSOP DEMOCODE\Source\Initial.c"
1419  0008  0F19        	mov a,25
1419  0009  00DC        	mov [92],a
1426  000A              #line 1426 "C:\Users\Administrator\Desktop\QQ 接收文件\NW2018_16NSOP DEMOCODE for佳点1\NW2018_16NSOP DEMOCODE\Source\Initial.c"
1426  000A  3013        	set [19].0
1426  000B  0003        	ret
1426  000C              _UART_INITIAL endp
1426  000C              #line 1426 "C:\Users\Administrator\Desktop\QQ 接收文件\NW2018_16NSOP DEMOCODE for佳点1\NW2018_16NSOP DEMOCODE\Source\Initial.c"
1426  000C              #pragma debug scope 1 1
1426  000C              public _RESET_INITIAL
1426  000C              #pragma debug scope 17 1
 556  000C              #line 556 "C:\Users\Administrator\Desktop\QQ 接收文件\NW2018_16NSOP DEMOCODE for佳点1\NW2018_16NSOP DEMOCODE\Source\Initial.c"
 556  0000              _RESET_INITIAL .section 'code'
 556  0000              _RESET_INITIAL proc
 557  0000              #line 557 "C:\Users\Administrator\Desktop\QQ 接收文件\NW2018_16NSOP DEMOCODE for佳点1\NW2018_16NSOP DEMOCODE\Source\Initial.c"
 557  0000  2000     R  	call _SYS_INITIAL
 559  0001              #line 559 "C:\Users\Administrator\Desktop\QQ 接收文件\NW2018_16NSOP DEMOCODE for佳点1\NW2018_16NSOP DEMOCODE\Source\Initial.c"
 559  0001  2000     R  	call _IO_INITIAL
 561  0002              #line 561 "C:\Users\Administrator\Desktop\QQ 接收文件\NW2018_16NSOP DEMOCODE for佳点1\NW2018_16NSOP DEMOCODE\Source\Initial.c"
 561  0002  2000     R  	call _CTM1_INITIAL
 562  0003              #line 562 "C:\Users\Administrator\Desktop\QQ 接收文件\NW2018_16NSOP DEMOCODE for佳点1\NW2018_16NSOP DEMOCODE\Source\Initial.c"
 562  0003  2000     R  	call _PTM0_INITIAL
 565  0004              #line 565 "C:\Users\Administrator\Desktop\QQ 接收文件\NW2018_16NSOP DEMOCODE for佳点1\NW2018_16NSOP DEMOCODE\Source\Initial.c"
 565  0004  2000     R  	call _ADC_INITIAL
 566  0005              #line 566 "C:\Users\Administrator\Desktop\QQ 接收文件\NW2018_16NSOP DEMOCODE for佳点1\NW2018_16NSOP DEMOCODE\Source\Initial.c"
 566  0005  2000     R  	call _INTERRUPT_INITIAL
 567  0006              #line 567 "C:\Users\Administrator\Desktop\QQ 接收文件\NW2018_16NSOP DEMOCODE for佳点1\NW2018_16NSOP DEMOCODE\Source\Initial.c"
 567  0006  2000     R  	call _UART_INITIAL
 568  0007              #line 568 "C:\Users\Administrator\Desktop\QQ 接收文件\NW2018_16NSOP DEMOCODE for佳点1\NW2018_16NSOP DEMOCODE\Source\Initial.c"
 568  0007  2000     R  	call _RAM_INITIAL
 568  0008  0003        	ret
 568  0009              _RESET_INITIAL endp
 568  0009              #line 568 "C:\Users\Administrator\Desktop\QQ 接收文件\NW2018_16NSOP DEMOCODE for佳点1\NW2018_16NSOP DEMOCODE\Source\Initial.c"
 568  0009              #pragma debug scope 1 1
 568  0009              #pragma debug variable 8 1 ___mp1l "__mp1l" 1
 568  0009              #pragma debug variable 8 1 ___mp1h "__mp1h" 1
 568  0009              #pragma debug variable 8 1 ___acc "__acc" 1
 568  0009              #pragma debug struct_end
 568  0009              #pragma debug struct_end
 568  0009              #pragma debug union_end
 568  0009              #pragma debug union_end
 568  0009              #pragma debug variable 44 1 ___scc "__scc" 1
 568  0009              #pragma debug struct_end
 568  0009              #pragma debug struct_end
 568  0009              #pragma debug union_end
 568  0009              #pragma debug union_end
 568  0009              #pragma debug variable 46 1 ___intc0 "__intc0" 1
文件：Initial.c    编译器版本 HGASM 0202 页次22

 568  0009              #pragma debug struct_end
 568  0009              #pragma debug struct_end
 568  0009              #pragma debug union_end
 568  0009              #pragma debug union_end
 568  0009              #pragma debug variable 48 1 ___intc1 "__intc1" 1
 568  0009              #pragma debug struct_end
 568  0009              #pragma debug struct_end
 568  0009              #pragma debug union_end
 568  0009              #pragma debug union_end
 568  0009              #pragma debug variable 50 1 ___intc2 "__intc2" 1
 568  0009              #pragma debug struct_end
 568  0009              #pragma debug struct_end
 568  0009              #pragma debug union_end
 568  0009              #pragma debug union_end
 568  0009              #pragma debug variable 52 1 ___intc3 "__intc3" 1
 568  0009              #pragma debug struct_end
 568  0009              #pragma debug struct_end
 568  0009              #pragma debug union_end
 568  0009              #pragma debug union_end
 568  0009              #pragma debug variable 54 1 ___pa "__pa" 1
 568  0009              #pragma debug struct_end
 568  0009              #pragma debug struct_end
 568  0009              #pragma debug union_end
 568  0009              #pragma debug union_end
 568  0009              #pragma debug variable 56 1 ___pac "__pac" 1
 568  0009              #pragma debug struct_end
 568  0009              #pragma debug struct_end
 568  0009              #pragma debug union_end
 568  0009              #pragma debug union_end
 568  0009              #pragma debug variable 58 1 ___papu "__papu" 1
 568  0009              #pragma debug struct_end
 568  0009              #pragma debug struct_end
 568  0009              #pragma debug union_end
 568  0009              #pragma debug union_end
 568  0009              #pragma debug variable 60 1 ___mfi0 "__mfi0" 1
 568  0009              #pragma debug struct_end
 568  0009              #pragma debug struct_end
 568  0009              #pragma debug union_end
 568  0009              #pragma debug union_end
 568  0009              #pragma debug variable 62 1 ___mfi1 "__mfi1" 1
 568  0009              #pragma debug struct_end
 568  0009              #pragma debug struct_end
 568  0009              #pragma debug union_end
 568  0009              #pragma debug union_end
 568  0009              #pragma debug variable 64 1 ___mfi2 "__mfi2" 1
 568  0009              #pragma debug struct_end
 568  0009              #pragma debug struct_end
 568  0009              #pragma debug union_end
 568  0009              #pragma debug union_end
 568  0009              #pragma debug variable 66 1 ___wdtc "__wdtc" 1
 568  0009              #pragma debug struct_end
 568  0009              #pragma debug struct_end
 568  0009              #pragma debug union_end
 568  0009              #pragma debug union_end
 568  0009              #pragma debug variable 68 1 ___lvrc "__lvrc" 1
 568  0009              #pragma debug struct_end
 568  0009              #pragma debug struct_end
 568  0009              #pragma debug union_end
 568  0009              #pragma debug union_end
 568  0009              #pragma debug variable 70 1 ___lvdc "__lvdc" 1
文件：Initial.c    编译器版本 HGASM 0202 页次23

 568  0009              #pragma debug struct_end
 568  0009              #pragma debug struct_end
 568  0009              #pragma debug union_end
 568  0009              #pragma debug union_end
 568  0009              #pragma debug variable 72 1 ___integ "__integ" 1
 568  0009              #pragma debug struct_end
 568  0009              #pragma debug struct_end
 568  0009              #pragma debug union_end
 568  0009              #pragma debug union_end
 568  0009              #pragma debug variable 74 1 ___tbc "__tbc" 1
 568  0009              #pragma debug struct_end
 568  0009              #pragma debug struct_end
 568  0009              #pragma debug union_end
 568  0009              #pragma debug union_end
 568  0009              #pragma debug variable 76 1 ___pcc "__pcc" 1
 568  0009              #pragma debug struct_end
 568  0009              #pragma debug struct_end
 568  0009              #pragma debug union_end
 568  0009              #pragma debug union_end
 568  0009              #pragma debug variable 78 1 ___pcpu "__pcpu" 1
 568  0009              #pragma debug struct_end
 568  0009              #pragma debug struct_end
 568  0009              #pragma debug union_end
 568  0009              #pragma debug union_end
 568  0009              #pragma debug variable 80 1 ___ctm0c0 "__ctm0c0" 1
 568  0009              #pragma debug struct_end
 568  0009              #pragma debug struct_end
 568  0009              #pragma debug union_end
 568  0009              #pragma debug union_end
 568  0009              #pragma debug variable 82 1 ___ctm0c1 "__ctm0c1" 1
 568  0009              #pragma debug variable 8 1 ___ctm0al "__ctm0al" 1
 568  0009              #pragma debug variable 8 1 ___ctm0ah "__ctm0ah" 1
 568  0009              #pragma debug struct_end
 568  0009              #pragma debug struct_end
 568  0009              #pragma debug union_end
 568  0009              #pragma debug union_end
 568  0009              #pragma debug variable 84 1 ___ptm0c0 "__ptm0c0" 1
 568  0009              #pragma debug struct_end
 568  0009              #pragma debug struct_end
 568  0009              #pragma debug union_end
 568  0009              #pragma debug union_end
 568  0009              #pragma debug variable 86 1 ___ptm0c1 "__ptm0c1" 1
 568  0009              #pragma debug variable 8 1 ___ptm0al "__ptm0al" 1
 568  0009              #pragma debug variable 8 1 ___ptm0ah "__ptm0ah" 1
 568  0009              #pragma debug variable 8 1 ___ptm0rpl "__ptm0rpl" 1
 568  0009              #pragma debug variable 8 1 ___ptm0rph "__ptm0rph" 1
 568  0009              #pragma debug struct_end
 568  0009              #pragma debug struct_end
 568  0009              #pragma debug union_end
 568  0009              #pragma debug union_end
 568  0009              #pragma debug variable 88 1 ___sadc0 "__sadc0" 1
 568  0009              #pragma debug struct_end
 568  0009              #pragma debug struct_end
 568  0009              #pragma debug union_end
 568  0009              #pragma debug union_end
 568  0009              #pragma debug variable 90 1 ___sadc1 "__sadc1" 1
 568  0009              #pragma debug struct_end
 568  0009              #pragma debug struct_end
 568  0009              #pragma debug union_end
 568  0009              #pragma debug union_end
文件：Initial.c    编译器版本 HGASM 0202 页次24

 568  0009              #pragma debug variable 92 1 ___sadc2 "__sadc2" 1
 568  0009              #pragma debug struct_end
 568  0009              #pragma debug struct_end
 568  0009              #pragma debug union_end
 568  0009              #pragma debug union_end
 568  0009              #pragma debug variable 94 1 ___pbs0 "__pbs0" 1
 568  0009              #pragma debug struct_end
 568  0009              #pragma debug struct_end
 568  0009              #pragma debug union_end
 568  0009              #pragma debug union_end
 568  0009              #pragma debug variable 96 1 ___ppgc "__ppgc" 1
 568  0009              #pragma debug struct_end
 568  0009              #pragma debug struct_end
 568  0009              #pragma debug union_end
 568  0009              #pragma debug union_end
 568  0009              #pragma debug variable 98 1 ___ppgpc "__ppgpc" 1
 568  0009              #pragma debug struct_end
 568  0009              #pragma debug struct_end
 568  0009              #pragma debug union_end
 568  0009              #pragma debug union_end
 568  0009              #pragma debug variable 100 1 ___ppgta "__ppgta" 1
 568  0009              #pragma debug struct_end
 568  0009              #pragma debug struct_end
 568  0009              #pragma debug union_end
 568  0009              #pragma debug union_end
 568  0009              #pragma debug variable 102 1 ___ppgtb "__ppgtb" 1
 568  0009              #pragma debug struct_end
 568  0009              #pragma debug struct_end
 568  0009              #pragma debug union_end
 568  0009              #pragma debug union_end
 568  0009              #pragma debug variable 104 1 ___ppgtex "__ppgtex" 1
 568  0009              #pragma debug variable 8 1 ___pwlt "__pwlt" 1
 568  0009              #pragma debug struct_end
 568  0009              #pragma debug struct_end
 568  0009              #pragma debug union_end
 568  0009              #pragma debug union_end
 568  0009              #pragma debug variable 106 1 ___ctm1c0 "__ctm1c0" 1
 568  0009              #pragma debug struct_end
 568  0009              #pragma debug struct_end
 568  0009              #pragma debug union_end
 568  0009              #pragma debug union_end
 568  0009              #pragma debug variable 108 1 ___ctm1c1 "__ctm1c1" 1
 568  0009              #pragma debug variable 8 1 ___ctm1al "__ctm1al" 1
 568  0009              #pragma debug variable 8 1 ___ctm1ah "__ctm1ah" 1
 568  0009              #pragma debug struct_end
 568  0009              #pragma debug struct_end
 568  0009              #pragma debug union_end
 568  0009              #pragma debug union_end
 568  0009              #pragma debug variable 110 1 ___u0sr "__u0sr" 1
 568  0009              #pragma debug struct_end
 568  0009              #pragma debug struct_end
 568  0009              #pragma debug union_end
 568  0009              #pragma debug union_end
 568  0009              #pragma debug variable 112 1 ___u0cr1 "__u0cr1" 1
 568  0009              #pragma debug struct_end
 568  0009              #pragma debug struct_end
 568  0009              #pragma debug union_end
 568  0009              #pragma debug union_end
 568  0009              #pragma debug variable 114 1 ___u0cr2 "__u0cr2" 1
 568  0009              #pragma debug variable 8 1 ___brg0 "__brg0" 1
文件：Initial.c    编译器版本 HGASM 0202 页次25

 568  0009              #pragma debug struct_end
 568  0009              #pragma debug struct_end
 568  0009              #pragma debug union_end
 568  0009              #pragma debug union_end
 568  0009              #pragma debug variable 116 1 ___ppgctc "__ppgctc" 1
 568  0009              #pragma debug struct_end
 568  0009              #pragma debug struct_end
 568  0009              #pragma debug union_end
 568  0009              #pragma debug union_end
 568  0009              #pragma debug variable 118 1 ___pckc "__pckc" 1
 568  0009              #pragma debug struct_end
 568  0009              #pragma debug struct_end
 568  0009              #pragma debug union_end
 568  0009              #pragma debug union_end
 568  0009              #pragma debug variable 120 1 ___ctrl "__ctrl" 1
 568  0009              #pragma debug struct_end
 568  0009              #pragma debug struct_end
 568  0009              #pragma debug union_end
 568  0009              #pragma debug union_end
 568  0009              #pragma debug variable 122 1 ___pcs0 "__pcs0" 1
 568  0009              #pragma debug struct_end
 568  0009              #pragma debug struct_end
 568  0009              #pragma debug union_end
 568  0009              #pragma debug union_end
 568  0009              #pragma debug variable 124 1 ___pcs1 "__pcs1" 1
 568  0009              #pragma debug struct_end
 568  0009              #pragma debug struct_end
 568  0009              #pragma debug union_end
 568  0009              #pragma debug union_end
 568  0009              #pragma debug variable 126 1 ___cmp1c2 "__cmp1c2" 1
 568  0009              #pragma debug struct_end
 568  0009              #pragma debug struct_end
 568  0009              #pragma debug union_end
 568  0009              #pragma debug union_end
 568  0009              #pragma debug variable 128 1 ___cmp3c2 "__cmp3c2" 1
 568  0009              #pragma debug struct_end
 568  0009              #pragma debug struct_end
 568  0009              #pragma debug union_end
 568  0009              #pragma debug union_end
 568  0009              #pragma debug variable 130 1 ___cmp0c0 "__cmp0c0" 1
 568  0009              #pragma debug struct_end
 568  0009              #pragma debug struct_end
 568  0009              #pragma debug union_end
 568  0009              #pragma debug union_end
 568  0009              #pragma debug variable 132 1 ___cmp0c1 "__cmp0c1" 1
 568  0009              #pragma debug struct_end
 568  0009              #pragma debug struct_end
 568  0009              #pragma debug union_end
 568  0009              #pragma debug union_end
 568  0009              #pragma debug variable 134 1 ___cmp0c2 "__cmp0c2" 1
 568  0009              #pragma debug struct_end
 568  0009              #pragma debug struct_end
 568  0009              #pragma debug union_end
 568  0009              #pragma debug union_end
 568  0009              #pragma debug variable 136 1 ___cmp0c3 "__cmp0c3" 1
 568  0009              #pragma debug struct_end
 568  0009              #pragma debug struct_end
 568  0009              #pragma debug union_end
 568  0009              #pragma debug union_end
 568  0009              #pragma debug variable 138 1 ___hircc "__hircc" 1
文件：Initial.c    编译器版本 HGASM 0202 页次26

 568  0009              #pragma debug struct_end
 568  0009              #pragma debug struct_end
 568  0009              #pragma debug union_end
 568  0009              #pragma debug union_end
 568  0009              #pragma debug variable 140 1 ___cmp1c0 "__cmp1c0" 1
 568  0009              #pragma debug struct_end
 568  0009              #pragma debug struct_end
 568  0009              #pragma debug union_end
 568  0009              #pragma debug union_end
 568  0009              #pragma debug variable 142 1 ___cmp1c1 "__cmp1c1" 1
 568  0009              #pragma debug variable 8 1 ___cmp1da "__cmp1da" 1
 568  0009              #pragma debug struct_end
 568  0009              #pragma debug struct_end
 568  0009              #pragma debug union_end
 568  0009              #pragma debug union_end
 568  0009              #pragma debug variable 144 1 ___cmp2c0 "__cmp2c0" 1
 568  0009              #pragma debug struct_end
 568  0009              #pragma debug struct_end
 568  0009              #pragma debug union_end
 568  0009              #pragma debug union_end
 568  0009              #pragma debug variable 146 1 ___cmp2c1 "__cmp2c1" 1
 568  0009              #pragma debug variable 8 1 ___cmp2da "__cmp2da" 1
 568  0009              #pragma debug struct_end
 568  0009              #pragma debug struct_end
 568  0009              #pragma debug union_end
 568  0009              #pragma debug union_end
 568  0009              #pragma debug variable 148 1 ___cmp3c0 "__cmp3c0" 1
 568  0009              #pragma debug struct_end
 568  0009              #pragma debug struct_end
 568  0009              #pragma debug union_end
 568  0009              #pragma debug union_end
 568  0009              #pragma debug variable 150 1 ___cmp3c1 "__cmp3c1" 1
 568  0009              #pragma debug variable 8 1 ___cmp3da "__cmp3da" 1
 568  0009              #pragma debug struct_end
 568  0009              #pragma debug struct_end
 568  0009              #pragma debug union_end
 568  0009              #pragma debug union_end
 568  0009              #pragma debug variable 152 1 ___cmp4c0 "__cmp4c0" 1
 568  0009              #pragma debug struct_end
 568  0009              #pragma debug struct_end
 568  0009              #pragma debug union_end
 568  0009              #pragma debug union_end
 568  0009              #pragma debug variable 154 1 ___cmp4c1 "__cmp4c1" 1
 568  0009              #pragma debug struct_end
 568  0009              #pragma debug struct_end
 568  0009              #pragma debug union_end
 568  0009              #pragma debug union_end
 568  0009              #pragma debug variable 156 1 ___cmp4c2 "__cmp4c2" 1
 568  0009              #pragma debug variable 8 1 ___cmp4da "__cmp4da" 1
 568  0009              #pragma debug struct_end
 568  0009              #pragma debug struct_end
 568  0009              #pragma debug union_end
 568  0009              #pragma debug union_end
 568  0009              #pragma debug variable 158 1 ___opac0 "__opac0" 1
 568  0009              #pragma debug struct_end
 568  0009              #pragma debug struct_end
 568  0009              #pragma debug union_end
 568  0009              #pragma debug union_end
 568  0009              #pragma debug variable 160 1 ___opac1 "__opac1" 1
 568  0009              #pragma debug struct_end
文件：Initial.c    编译器版本 HGASM 0202 页次27

 568  0009              #pragma debug struct_end
 568  0009              #pragma debug union_end
 568  0009              #pragma debug union_end
 568  0009              #pragma debug variable 162 1 ___pas0 "__pas0" 1
 568  0009              #pragma debug struct_end
 568  0009              #pragma debug struct_end
 568  0009              #pragma debug union_end
 568  0009              #pragma debug union_end
 568  0009              #pragma debug variable 164 1 ___pas1 "__pas1" 1
 568  0009              #pragma debug variable 8 1 ___tmr "__tmr" 1
 568  0009              #pragma debug struct_end
 568  0009              #pragma debug struct_end
 568  0009              #pragma debug union_end
 568  0009              #pragma debug union_end
 568  0009              #pragma debug variable 166 1 ___tmrc "__tmrc" 1
 568  0009              #pragma debug variable 8 1 ___iar1 "__iar1" 1
 568  0009              
 568  0009              ; 
 568  0009              ; Generated by holtek-gcc v3.18, Mon May 06 15:41:34 2019
 568  0009              ; Rebuild 828
 568  0009              ; end of file


        0 Errors, 0