文件：eeprom.c     编译器版本 HGASM 0202 页次1


   1  0000              ; Generated by holtek-gcc v3.18, Fri May 31 17:54:45 2019
   2  0000              ; 
   3  0000              ; Configuration:
   4  0000              ;       with long instruction
   5  0000              ;       Single ROM, Multi-RAM
   6  0000              ;       bits_per_rom_unit:16
   7  0000              ;       with mp1
   8  0000              ;       with tbhp, address(0x9)
   9  0000              ;          Use tabrd-const
  10  0000              ;       
  11  0000              ; SFR address of long-instruction arch:
  12  0000              ;    mp0 = -1,1,0
  13  0000              ;    mp1 = 4,3,2
  14  0000              ;    mp2 = 14,13,12
  15  0000              ;    tbp = 9,7,8
  16  0000              ;    acc = 5
  17  0000              ;    pcl = 6
  18  0000              ;    status = 10
  19  0000              ;    bp = 11
  20  0000              ;    intc = 16
  21  0000              ;       
  22  0000              ;       
  23  0000              ; use 'tabrdc' instead of 'tabrd'
  24  0000              ;       
  25  0000              
  26  0000              #pragma translator "holtek-gcc 4.6.4" "3.18" "build 20130711"
  27  0000              ; Rebuild 828
  28  0000              
  29  0000              ir equ [2]
  30  0000              mp equ [3]
  31  0000              sbp equ [4]
  32  0000              acc equ [5]
  33  0000              bp equ [11]
  34  0000              tblp equ [7]
  35  0000              tbhp equ [9]
  36  0000              status equ [10]
  37  0000              c equ [10].0
  38  0000              ac equ [10].1
  39  0000              z equ [10].2
  40  0000              ov equ [10].3
  41  0000              cz equ [10].6
  42  0000              sc equ [10].7
  43  0000              intc equ [16]
  44  0000              
  45  0000              extern ra:byte
  46  0000              extern rb:byte
  47  0000              extern rc:byte
  48  0000              extern rd:byte
  49  0000              extern re:byte
  50  0000              extern rf:byte
  51  0000              extern rg:byte
  52  0000              extern rh:byte
  53  0000              extern _Crom2Prom:near
  54  0000              extern _Crom2PromNext:near
  55  0000              
  56  0000              RAMBANK 0 @BITDATASEC, @BITDATASEC1
  57  0000              @HCCINIT	.section 'data'
  58  0000              @HCCINIT0	.section 'data'
  59  0000              @BITDATASEC	 .section 'data'
文件：eeprom.ASM   编译器版本 HGASM 0202 页次2

  60  0000              @BITDATASEC1	 .section 'data'
  61  0000              
  62  0000              #pragma debug scope 1 1
  63  0000              	extern __DELAY3:near
  64  0000              	extern __DELAYX3:near
  65  0000              	extern __DELAYX6:near
  66  0000              	extern __DELAYY5:near
  67  0000              	extern __DELAYY3:near
  68  0000              	extern _builtin_holtek_delay_2:byte
  69  0000              ___eea equ [37]
  70  0000              ___mp1l equ [3]
  71  0000              ___mp1h equ [4]
  72  0000              ___iar1 equ [2]
  73  0000              ___eed equ [38]
  74  0000              public _EEPROM_Read
  75  0000              #pragma debug scope 2 1

  16  0000              #line 16 "F:\2_Source\NW1951_NW2018_20SOP 上海佳点 BBU 控制器-V00\CODE\source\eeprom.c"
  16  0000              _EEPROM_Read .section 'code'
  16  0000              _EEPROM_Read proc
  16  0000  00              local _EEPROM_Read_2 db 1 dup(?)	; 0,1
  16  0000  0080     E  	mov ra,a
  16  0001  0080     R  	mov _EEPROM_Read_2[0],a
  16  0002              #pragma debug variable 8 2 _EEPROM_Read_2+0 "addr_data"
  19  0002              #line 19 "F:\2_Source\NW1951_NW2018_20SOP 上海佳点 BBU 控制器-V00\CODE\source\eeprom.c"
  19  0002  0700     E  	mov a,ra
  19  0003  00A5        	mov [37],a
  22  0004              #line 22 "F:\2_Source\NW1951_NW2018_20SOP 上海佳点 BBU 控制器-V00\CODE\source\eeprom.c"
  22  0004  0F40        	mov a,64
  22  0005  0083        	mov [3],a
  23  0006              #line 23 "F:\2_Source\NW1951_NW2018_20SOP 上海佳点 BBU 控制器-V00\CODE\source\eeprom.c"
  23  0006  0F01        	mov a,1
  23  0007  0084        	mov [4],a
  29  0008              #line 29 "F:\2_Source\NW1951_NW2018_20SOP 上海佳点 BBU 控制器-V00\CODE\source\eeprom.c"
  29  0008  3082        	set [2].1
  30  0009              #line 30 "F:\2_Source\NW1951_NW2018_20SOP 上海佳点 BBU 控制器-V00\CODE\source\eeprom.c"
  30  0009  3002        	set [2].0
  30  000A              _L3:
  32  000A              #line 32 "F:\2_Source\NW1951_NW2018_20SOP 上海佳点 BBU 控制器-V00\CODE\source\eeprom.c"
  32  000A  3C02        	sz [2].0
  32  000B  2800     R  	jmp _L3
  34  000C              #line 34 "F:\2_Source\NW1951_NW2018_20SOP 上海佳点 BBU 控制器-V00\CODE\source\eeprom.c"
  34  000C              ;# 34 "F:\2_Source\NW1951_NW2018_20SOP 上海佳点 BBU 控制器-V00\CODE\source\eeprom.c" 1
  34  000C  0001        	clr wdt
  36  000D              #line 36 "F:\2_Source\NW1951_NW2018_20SOP 上海佳点 BBU 控制器-V00\CODE\source\eeprom.c"
  36  000D  3482        	clr [2].1
  39  000E              #line 39 "F:\2_Source\NW1951_NW2018_20SOP 上海佳点 BBU 控制器-V00\CODE\source\eeprom.c"
  39  000E  1F04        	clr [4]
  44  000F              #line 44 "F:\2_Source\NW1951_NW2018_20SOP 上海佳点 BBU 控制器-V00\CODE\source\eeprom.c"
  44  000F  0726        	mov a,[38]
  44  0010  0080     E  	mov ra,a
  47  0011              #line 47 "F:\2_Source\NW1951_NW2018_20SOP 上海佳点 BBU 控制器-V00\CODE\source\eeprom.c"
  47  0011  0700     E  	mov a,ra
  47  0012  0003        	ret
  47  0013              _EEPROM_Read endp
  47  0013              #line 47 "F:\2_Source\NW1951_NW2018_20SOP 上海佳点 BBU 控制器-V00\CODE\source\eeprom.c"
  47  0013              #pragma debug scope 1 1
  47  0013              ___intc0 equ [16]
  47  0013              public _EEPROM_Write
  47  0013              #pragma debug scope 3 1
文件：eeprom.c     编译器版本 HGASM 0202 页次3

  53  0013              #line 53 "F:\2_Source\NW1951_NW2018_20SOP 上海佳点 BBU 控制器-V00\CODE\source\eeprom.c"
  53  0000              _EEPROM_Write .section 'code'
  53  0000              _EEPROM_Write proc
  53  0000              public _EEPROM_Write_2
  53  0000  0002[           local _EEPROM_Write_2 db 2 dup(?)	; 1,1
            00
            ]
  53  0000  0080     E  	mov ra,a
  53  0001  0080     R  	mov _EEPROM_Write_2[1],a
  53  0002              #pragma debug variable 8 3 _EEPROM_Write_2+1 "addr_data"
  53  0002              #pragma debug variable 8 3 _EEPROM_Write_2+0 "data"
  54  0002              #line 54 "F:\2_Source\NW1951_NW2018_20SOP 上海佳点 BBU 控制器-V00\CODE\source\eeprom.c"
  54  0002  0700     E  	mov a,ra
  54  0003  00A5        	mov [37],a
  55  0004              #line 55 "F:\2_Source\NW1951_NW2018_20SOP 上海佳点 BBU 控制器-V00\CODE\source\eeprom.c"
  55  0004  0700     R  	mov a,_EEPROM_Write_2[0]
  55  0005  00A6        	mov [38],a
  58  0006              #line 58 "F:\2_Source\NW1951_NW2018_20SOP 上海佳点 BBU 控制器-V00\CODE\source\eeprom.c"
  58  0006  0F40        	mov a,64
  58  0007  0083        	mov [3],a
  59  0008              #line 59 "F:\2_Source\NW1951_NW2018_20SOP 上海佳点 BBU 控制器-V00\CODE\source\eeprom.c"
  59  0008  0F01        	mov a,1
  59  0009  0084        	mov [4],a
  64  000A              #line 64 "F:\2_Source\NW1951_NW2018_20SOP 上海佳点 BBU 控制器-V00\CODE\source\eeprom.c"
  64  000A  3410        	clr [16].0
  65  000B              #line 65 "F:\2_Source\NW1951_NW2018_20SOP 上海佳点 BBU 控制器-V00\CODE\source\eeprom.c"
  65  000B  3182        	set [2].3
  66  000C              #line 66 "F:\2_Source\NW1951_NW2018_20SOP 上海佳点 BBU 控制器-V00\CODE\source\eeprom.c"
  66  000C  3102        	set [2].2
  67  000D              #line 67 "F:\2_Source\NW1951_NW2018_20SOP 上海佳点 BBU 控制器-V00\CODE\source\eeprom.c"
  67  000D  3010        	set [16].0
  67  000E              _L7:
  68  000E              #line 68 "F:\2_Source\NW1951_NW2018_20SOP 上海佳点 BBU 控制器-V00\CODE\source\eeprom.c"
  68  000E  3D02        	sz [2].2
  68  000F  2800     R  	jmp _L7
  70  0010              #line 70 "F:\2_Source\NW1951_NW2018_20SOP 上海佳点 BBU 控制器-V00\CODE\source\eeprom.c"
  70  0010              ;# 70 "F:\2_Source\NW1951_NW2018_20SOP 上海佳点 BBU 控制器-V00\CODE\source\eeprom.c" 1
  70  0010  0001        	clr wdt
  72  0011              #line 72 "F:\2_Source\NW1951_NW2018_20SOP 上海佳点 BBU 控制器-V00\CODE\source\eeprom.c"
  72  0011  3502        	clr [2].2
  75  0012              #line 75 "F:\2_Source\NW1951_NW2018_20SOP 上海佳点 BBU 控制器-V00\CODE\source\eeprom.c"
  75  0012  1F04        	clr [4]
  75  0013  0003        	ret
  75  0014              _EEPROM_Write endp
  75  0014              #line 75 "F:\2_Source\NW1951_NW2018_20SOP 上海佳点 BBU 控制器-V00\CODE\source\eeprom.c"
  75  0014              #pragma debug scope 1 1
  75  0014              public _User_config_Read
  75  0014              #pragma debug scope 4 1
  88  0014              #line 88 "F:\2_Source\NW1951_NW2018_20SOP 上海佳点 BBU 控制器-V00\CODE\source\eeprom.c"
  88  0000              _User_config_Read .section 'code'
  88  0000              _User_config_Read proc
  89  0000              #line 89 "F:\2_Source\NW1951_NW2018_20SOP 上海佳点 BBU 控制器-V00\CODE\source\eeprom.c"
  89  0000  0F10        	mov a,16
  89  0001  2000     R  	call _EEPROM_Read
  89  0002  0080     E  	mov ra,a
  89  0003  0700     E  	mov a,ra
  89  0004  0A55        	sub a,85
  89  0005  390A        	snz z
  89  0006  2800     R  	jmp _L9
  89  0007              #line 89 "F:\2_Source\NW1951_NW2018_20SOP 上海佳点 BBU 控制器-V00\CODE\source\eeprom.c"
文件：eeprom.c     编译器版本 HGASM 0202 页次4

  89  0007  0F12        	mov a,18
  89  0008  2000     R  	call _EEPROM_Read
  89  0009  0080     E  	mov ra,a
  89  000A  0700     E  	mov a,ra
  89  000B  0AAA        	sub a,170
  89  000C  390A        	snz z
  89  000D  2800     R  	jmp _L9
  91  000E              #line 91 "F:\2_Source\NW1951_NW2018_20SOP 上海佳点 BBU 控制器-V00\CODE\source\eeprom.c"
  91  000E  0F11        	mov a,17
  91  000F  2000     R  	call _EEPROM_Read
  91  0010  0080     E  	mov ra,a
  91  0011  0700     E  	mov a,ra
  91  0012  0080     E  	mov _R_calibration_k[0],a
  92  0013              #line 92 "F:\2_Source\NW1951_NW2018_20SOP 上海佳点 BBU 控制器-V00\CODE\source\eeprom.c"
  92  0013  0F12        	mov a,18
  92  0014  2000     R  	call _EEPROM_Read
  92  0015  0080     E  	mov ra,a
  92  0016  0700     E  	mov a,ra
  92  0017  0080     E  	mov _R_calibration_pos[0],a
  94  0018              #line 94 "F:\2_Source\NW1951_NW2018_20SOP 上海佳点 BBU 控制器-V00\CODE\source\eeprom.c"
  94  0018  0F15        	mov a,21
  94  0019  0200     E  	sub a,_R_calibration_k[0]
  94  001A  3C0A        	sz c
  94  001B  2800     R  	jmp _L8
  95  001C              #line 95 "F:\2_Source\NW1951_NW2018_20SOP 上海佳点 BBU 控制器-V00\CODE\source\eeprom.c"
  95  001C  1F00     E  	clr _R_calibration_k[0]
  96  001D              #line 96 "F:\2_Source\NW1951_NW2018_20SOP 上海佳点 BBU 控制器-V00\CODE\source\eeprom.c"
  96  001D  1F00     R  	clr _EEPROM_Write_2[0]
  96  001E  0F10        	mov a,16
  96  001F  2000     R  	call _EEPROM_Write
  97  0020              #line 97 "F:\2_Source\NW1951_NW2018_20SOP 上海佳点 BBU 控制器-V00\CODE\source\eeprom.c"
  97  0020  1F00     R  	clr _EEPROM_Write_2[0]
  97  0021  0F11        	mov a,17
  97  0022  2000     R  	call _EEPROM_Write
  98  0023              #line 98 "F:\2_Source\NW1951_NW2018_20SOP 上海佳点 BBU 控制器-V00\CODE\source\eeprom.c"
  98  0023  1F00     R  	clr _EEPROM_Write_2[0]
  98  0024  0F12        	mov a,18
  98  0025  2000     R  	call _EEPROM_Write
  99  0026              #line 99 "F:\2_Source\NW1951_NW2018_20SOP 上海佳点 BBU 控制器-V00\CODE\source\eeprom.c"
  99  0026  1F00     R  	clr _EEPROM_Write_2[0]
  99  0027  0F13        	mov a,19
  99  0028  2000     R  	call _EEPROM_Write
  99  0029  2800     R  	jmp _L8
  99  002A              _L9:
 102  002A              #line 102 "F:\2_Source\NW1951_NW2018_20SOP 上海佳点 BBU 控制器-V00\CODE\source\eeprom.c"
 102  002A  1F00     E  	clr _R_calibration_k[0]
 102  002B              _L8:
 102  002B  0003        	ret
 102  002C              _User_config_Read endp
 102  002C              #line 102 "F:\2_Source\NW1951_NW2018_20SOP 上海佳点 BBU 控制器-V00\CODE\source\eeprom.c"
 102  002C              #pragma debug scope 1 1
 102  002C              public _User_config_store
 102  002C              #pragma debug scope 5 1
 113  002C              #line 113 "F:\2_Source\NW1951_NW2018_20SOP 上海佳点 BBU 控制器-V00\CODE\source\eeprom.c"
 113  0000              _User_config_store .section 'code'
 113  0000              _User_config_store proc
 114  0000              #line 114 "F:\2_Source\NW1951_NW2018_20SOP 上海佳点 BBU 控制器-V00\CODE\source\eeprom.c"
 114  0000  0F15        	mov a,21
 114  0001  0200     E  	sub a,_R_calibration_k[0]
 114  0002  3C0A        	sz c
文件：eeprom.c     编译器版本 HGASM 0202 页次5

 114  0003  2800     R  	jmp _L12
 115  0004              #line 115 "F:\2_Source\NW1951_NW2018_20SOP 上海佳点 BBU 控制器-V00\CODE\source\eeprom.c"
 115  0004  1F00     E  	clr _R_calibration_k[0]
 116  0005              #line 116 "F:\2_Source\NW1951_NW2018_20SOP 上海佳点 BBU 控制器-V00\CODE\source\eeprom.c"
 116  0005  3000     E  	set _flag3[0].3
 116  0006  2800     R  	jmp _L11
 116  0007              _L12:
 118  0007              #line 118 "F:\2_Source\NW1951_NW2018_20SOP 上海佳点 BBU 控制器-V00\CODE\source\eeprom.c"
 118  0007  3400     E  	clr _flag3[0].3
 119  0008              #line 119 "F:\2_Source\NW1951_NW2018_20SOP 上海佳点 BBU 控制器-V00\CODE\source\eeprom.c"
 119  0008  0F55        	mov a,85
 119  0009  0080     R  	mov _EEPROM_Write_2[0],a
 119  000A  0F10        	mov a,16
 119  000B  2000     R  	call _EEPROM_Write
 120  000C              #line 120 "F:\2_Source\NW1951_NW2018_20SOP 上海佳点 BBU 控制器-V00\CODE\source\eeprom.c"
 120  000C  0700     E  	mov a,_R_calibration_k[0]
 120  000D  0080     R  	mov _EEPROM_Write_2[0],a
 120  000E  0F11        	mov a,17
 120  000F  2000     R  	call _EEPROM_Write
 121  0010              #line 121 "F:\2_Source\NW1951_NW2018_20SOP 上海佳点 BBU 控制器-V00\CODE\source\eeprom.c"
 121  0010  0700     E  	mov a,_R_calibration_pos[0]
 121  0011  0080     R  	mov _EEPROM_Write_2[0],a
 121  0012  0F12        	mov a,18
 121  0013  2000     R  	call _EEPROM_Write
 122  0014              #line 122 "F:\2_Source\NW1951_NW2018_20SOP 上海佳点 BBU 控制器-V00\CODE\source\eeprom.c"
 122  0014  0FAA        	mov a,170
 122  0015  0080     R  	mov _EEPROM_Write_2[0],a
 122  0016  0F13        	mov a,19
 122  0017  2000     R  	call _EEPROM_Write
 122  0018              _L11:
 122  0018  0003        	ret
 122  0019              _User_config_store endp
 122  0019              #line 122 "F:\2_Source\NW1951_NW2018_20SOP 上海佳点 BBU 控制器-V00\CODE\source\eeprom.c"
 122  0019              #pragma debug scope 1 1
 122  0019              #pragma debug variable 8 1 ___mp1l "__mp1l" 1
 122  0019              #pragma debug variable 8 1 ___mp1h "__mp1h" 1
 122  0019              #pragma debug struct_end
 122  0019              #pragma debug struct_end
 122  0019              #pragma debug union_end
 122  0019              #pragma debug union_end
 122  0019              #pragma debug variable 43 1 ___intc0 "__intc0" 1
 122  0019              #pragma debug variable 8 1 ___eea "__eea" 1
 122  0019              #pragma debug variable 8 1 ___eed "__eed" 1
 122  0019              #pragma debug variable 8 1 ___iar1 "__iar1" 1
 122  0019              
 122  0019              ; output external variables
 122  0019              extern _flag3:byte
 122  0019              extern _R_calibration_pos:byte
 122  0019              extern _R_calibration_k:byte
 122  0019              
 122  0019              ; 
 122  0019              ; Generated by holtek-gcc v3.18, Fri May 31 17:54:45 2019
 122  0019              ; Rebuild 828
 122  0019              ; end of file


        0 Errors, 0