文件：Interrupt.c  编译器版本 HGASM 0202 页次1


   1  0000              ; Generated by holtek-gcc v3.18, Fri May 31 17:54:41 2019
   2  0000              ; 
   3  0000              ; Configuration:
   4  0000              ;       with long instruction
   5  0000              ;       Single ROM, Multi-RAM
   6  0000              ;       bits_per_rom_unit:16
   7  0000              ;       with mp1
   8  0000              ;       with tbhp, address(0x9)
   9  0000              ;          Use tabrd-const
  10  0000              ;       
  11  0000              ; SFR address of long-instruction arch:
  12  0000              ;    mp0 = -1,1,0
  13  0000              ;    mp1 = 4,3,2
  14  0000              ;    mp2 = 14,13,12
  15  0000              ;    tbp = 9,7,8
  16  0000              ;    acc = 5
  17  0000              ;    pcl = 6
  18  0000              ;    status = 10
  19  0000              ;    bp = 11
  20  0000              ;    intc = 16
  21  0000              ;       
  22  0000              ;       
  23  0000              ; use 'tabrdc' instead of 'tabrd'
  24  0000              ;       
  25  0000              
  26  0000              #pragma translator "holtek-gcc 4.6.4" "3.18" "build 20130711"
  27  0000              ; Rebuild 828
  28  0000              
  29  0000              ir equ [2]
  30  0000              mp equ [3]
  31  0000              sbp equ [4]
  32  0000              acc equ [5]
  33  0000              bp equ [11]
  34  0000              tblp equ [7]
  35  0000              tbhp equ [9]
  36  0000              status equ [10]
  37  0000              c equ [10].0
  38  0000              ac equ [10].1
  39  0000              z equ [10].2
  40  0000              ov equ [10].3
  41  0000              cz equ [10].6
  42  0000              sc equ [10].7
  43  0000              intc equ [16]
  44  0000              
  45  0000              extern ra:byte
  46  0000              extern rb:byte
  47  0000              extern rc:byte
  48  0000              extern rd:byte
  49  0000              extern re:byte
  50  0000              extern rf:byte
  51  0000              extern rg:byte
  52  0000              extern rh:byte
  53  0000              extern _Crom2Prom:near
  54  0000              extern _Crom2PromNext:near
  55  0000              
  56  0000              RAMBANK 0 @BITDATASEC, @BITDATASEC1
  57  0000              @HCCINIT	.section 'data'
  58  0000              @HCCINIT0	.section 'data'
  59  0000              @BITDATASEC	 .section 'data'
文件：Interrupt.ASM 编译器版本 HGASM 0202 页次2

  60  0000              @BITDATASEC1	 .section 'data'
  61  0000              
  62  0000              #pragma debug scope 1 1
  63  0000              	extern __DELAY3:near
  64  0000              	extern __DELAYX3:near
  65  0000              	extern __DELAYX6:near
  66  0000              	extern __DELAYY5:near
  67  0000              	extern __DELAYY3:near
  68  0000              	extern _builtin_holtek_delay_2:byte
  69  0000              public _Interrupt_CMP0_SYNC_ISR
  70  0000              #pragma debug scope 2 1

   9  0000              #line 9 "F:\2_Source\NW1951_NW2018_20SOP 上海佳点 BBU 控制器-V00\CODE\source\Interrupt.c"
   9  0000              @Interrupt_CMP0_SYNC_ISR_code .section at 8 'code'
   9  0000              _Interrupt_CMP0_SYNC_ISR:
   9  0000              ifdef INTERRUPT_DELAY
   9  0000              	nop
   9  0000              endif
   9  0000  0004        	reti
   9  0001              #line 9 "F:\2_Source\NW1951_NW2018_20SOP 上海佳点 BBU 控制器-V00\CODE\source\Interrupt.c"
   9  0001              #pragma debug scope 1 1
   9  0001              public _Interrupt_CMP1_OV_ISR
   9  0001              #pragma debug scope 3 1
  21  0001              #line 21 "F:\2_Source\NW1951_NW2018_20SOP 上海佳点 BBU 控制器-V00\CODE\source\Interrupt.c"
  21  0000              @Interrupt_CMP1_OV_ISR_code .section at 12 'code'
  21  0000              _Interrupt_CMP1_OV_ISR:
  21  0000              ifdef INTERRUPT_DELAY
  21  0000              	nop
  21  0000              endif
  21  0000  0004        	reti
  21  0001              #line 21 "F:\2_Source\NW1951_NW2018_20SOP 上海佳点 BBU 控制器-V00\CODE\source\Interrupt.c"
  21  0001              #pragma debug scope 1 1
  21  0001              public _Interrupt_CMP2_ZC_ISR
  21  0001              #pragma debug scope 4 1
  33  0001              #line 33 "F:\2_Source\NW1951_NW2018_20SOP 上海佳点 BBU 控制器-V00\CODE\source\Interrupt.c"
  33  0000              @Interrupt_CMP2_ZC_ISR_code .section at 16 'code'
  33  0000              _Interrupt_CMP2_ZC_ISR:
  33  0000              ifdef INTERRUPT_DELAY
  33  0000              	nop
  33  0000              endif
  33  0000  0004        	reti
  33  0001              #line 33 "F:\2_Source\NW1951_NW2018_20SOP 上海佳点 BBU 控制器-V00\CODE\source\Interrupt.c"
  33  0001              #pragma debug scope 1 1
  33  0001              public _Interrupt_CMP3_VSUG_ISR
  33  0001              #pragma debug scope 5 1
  45  0001              #line 45 "F:\2_Source\NW1951_NW2018_20SOP 上海佳点 BBU 控制器-V00\CODE\source\Interrupt.c"
  45  0000              @Interrupt_CMP3_VSUG_ISR_code .section at 20 'code'
  45  0000              _Interrupt_CMP3_VSUG_ISR:
  45  0000              ifdef INTERRUPT_DELAY
  45  0000              	nop
  45  0000              endif
  45  0000  0004        	reti
  45  0001              #line 45 "F:\2_Source\NW1951_NW2018_20SOP 上海佳点 BBU 控制器-V00\CODE\source\Interrupt.c"
  45  0001              #pragma debug scope 1 1
  45  0001              public _Interrupt_CMP4_OC_ISR
  45  0001              #pragma debug scope 6 1
  56  0001              #line 56 "F:\2_Source\NW1951_NW2018_20SOP 上海佳点 BBU 控制器-V00\CODE\source\Interrupt.c"
  56  0000              @Interrupt_CMP4_OC_ISR_code .section at 24 'code'
  56  0000              _Interrupt_CMP4_OC_ISR:
  56  0000              ifdef INTERRUPT_DELAY
文件：Interrupt.c  编译器版本 HGASM 0202 页次3

  56  0000              	nop
  56  0000              endif
  56  0000  0004        	reti
  56  0001              #line 56 "F:\2_Source\NW1951_NW2018_20SOP 上海佳点 BBU 控制器-V00\CODE\source\Interrupt.c"
  56  0001              #pragma debug scope 1 1
  56  0001              public _Interrupt_SYNC_ISR
  56  0001              #pragma debug scope 7 1
  68  0001              #line 68 "F:\2_Source\NW1951_NW2018_20SOP 上海佳点 BBU 控制器-V00\CODE\source\Interrupt.c"
  68  0000              @Interrupt_SYNC_ISR_code .section at 28 'code'
  68  0000              _Interrupt_SYNC_ISR:
  68  0000              ifdef INTERRUPT_DELAY
  68  0000              	nop
  68  0000              endif
  68  0000  0004        	reti
  68  0001              #line 68 "F:\2_Source\NW1951_NW2018_20SOP 上海佳点 BBU 控制器-V00\CODE\source\Interrupt.c"
  68  0001              #pragma debug scope 1 1
  68  0001              ___mfi0 equ [24]
  68  0001              public _Interrupt_PTM0_CCRA
  68  0001              #pragma debug scope 8 1
 169  0001              #line 169 "F:\2_Source\NW1951_NW2018_20SOP 上海佳点 BBU 控制器-V00\CODE\source\Interrupt.c"
 169  0000              @Interrupt_PTM0_CCRA_code .section at 36 'code'
 169  0000              ifdef INTERRUPT_DELAY
 169  0000              	nop
 169  0000              endif
 169  0000  0080     E  	mov r1,a
 169  0001  070A        	mov a,status
 169  0002              ifndef INTERRUPT_DELAY
 169  0002  0080     E  	mov r2,a
 169  0003              endif
 169  0003  2800     R  	jmp _Interrupt_PTM0_CCRA
 169  0004              #pragma debug scope 1 1
 169  0004              @dummy36 endp
 169  0004              #pragma debug scope 9 1
 169  0000              _Interrupt_PTM0_CCRA .section 'code'
 169  0000              _Interrupt_PTM0_CCRA proc
 169  0000              ifdef INTERRUPT_DELAY
 169  0000              	mov r2,a
 169  0000              endif
 170  0000              #line 170 "F:\2_Source\NW1951_NW2018_20SOP 上海佳点 BBU 控制器-V00\CODE\source\Interrupt.c"
 170  0000  3698        	clr [24].5
 171  0001              #line 171 "F:\2_Source\NW1951_NW2018_20SOP 上海佳点 BBU 控制器-V00\CODE\source\Interrupt.c"
 171  0001  3618        	clr [24].4
 172  0002              #line 172 "F:\2_Source\NW1951_NW2018_20SOP 上海佳点 BBU 控制器-V00\CODE\source\Interrupt.c"
 172  0002  3718        	clr [24].6
 172  0003  0700     E  	mov a,r2
 172  0004  008A        	mov status,a
 172  0005  0700     E  	mov a,r1
 172  0006  0004        	reti
 172  0007              _Interrupt_PTM0_CCRA endp
 172  0007              
 172  0007              #line 172 "F:\2_Source\NW1951_NW2018_20SOP 上海佳点 BBU 控制器-V00\CODE\source\Interrupt.c"
 172  0007              #pragma debug scope 1 1
 172  0007              public _Interrupt_TB1_ISR
 172  0007              #pragma debug scope 10 1
 181  0007              #line 181 "F:\2_Source\NW1951_NW2018_20SOP 上海佳点 BBU 控制器-V00\CODE\source\Interrupt.c"
 181  0000              @Interrupt_TB1_ISR_code .section at 40 'code'
 181  0000              _Interrupt_TB1_ISR:
 181  0000              ifdef INTERRUPT_DELAY
 181  0000              	nop
 181  0000              endif
文件：Interrupt.c  编译器版本 HGASM 0202 页次4

 181  0000  0004        	reti
 181  0001              #line 181 "F:\2_Source\NW1951_NW2018_20SOP 上海佳点 BBU 控制器-V00\CODE\source\Interrupt.c"
 181  0001              #pragma debug scope 1 1
 181  0001              public _Interrupt_TMR_ISR
 181  0001              #pragma debug scope 11 1
 191  0001              #line 191 "F:\2_Source\NW1951_NW2018_20SOP 上海佳点 BBU 控制器-V00\CODE\source\Interrupt.c"
 191  0000              @Interrupt_TMR_ISR_code .section at 44 'code'
 191  0000              _Interrupt_TMR_ISR:
 191  0000              ifdef INTERRUPT_DELAY
 191  0000              	nop
 191  0000              endif
 191  0000  0004        	reti
 191  0001              #line 191 "F:\2_Source\NW1951_NW2018_20SOP 上海佳点 BBU 控制器-V00\CODE\source\Interrupt.c"
 191  0001              #pragma debug scope 1 1
 191  0001              ___mfi1 equ [28]
 191  0001              ___pc equ [39]
 191  0001              public _Interrupt_CTM0_CCRA
 191  0001              #pragma debug scope 12 1
 224  0001              #line 224 "F:\2_Source\NW1951_NW2018_20SOP 上海佳点 BBU 控制器-V00\CODE\source\Interrupt.c"
 224  0000              @Interrupt_CTM0_CCRA_code .section at 52 'code'
 224  0000              ifdef INTERRUPT_DELAY
 224  0000              	nop
 224  0000              endif
 224  0000  0080     E  	mov r1,a
 224  0001  070A        	mov a,status
 224  0002              ifndef INTERRUPT_DELAY
 224  0002  0080     E  	mov r2,a
 224  0003              endif
 224  0003  2800     R  	jmp _Interrupt_CTM0_CCRA
 224  0004              #pragma debug scope 1 1
 224  0004              @dummy52 endp
 224  0004              #pragma debug scope 13 1
 224  0000              _Interrupt_CTM0_CCRA .section 'code'
 224  0000              _Interrupt_CTM0_CCRA proc
 224  0000              ifdef INTERRUPT_DELAY
 224  0000              	mov r2,a
 224  0000              endif
 225  0000              #line 225 "F:\2_Source\NW1951_NW2018_20SOP 上海佳点 BBU 控制器-V00\CODE\source\Interrupt.c"
 225  0000  369C        	clr [28].5
 226  0001              #line 226 "F:\2_Source\NW1951_NW2018_20SOP 上海佳点 BBU 控制器-V00\CODE\source\Interrupt.c"
 226  0001  361C        	clr [28].4
 227  0002              #line 227 "F:\2_Source\NW1951_NW2018_20SOP 上海佳点 BBU 控制器-V00\CODE\source\Interrupt.c"
 227  0002  371C        	clr [28].6
 228  0003              #line 228 "F:\2_Source\NW1951_NW2018_20SOP 上海佳点 BBU 控制器-V00\CODE\source\Interrupt.c"
 228  0003  3000     E  	set _flagtime[0].0
 229  0004              #line 229 "F:\2_Source\NW1951_NW2018_20SOP 上海佳点 BBU 控制器-V00\CODE\source\Interrupt.c"
 229  0004  1400     E  	inca _R_time200ms[0]
 229  0005  0080     E  	mov ra,a
 229  0006  0700     E  	mov a,ra
 229  0007  0080     E  	mov _R_time200ms[0],a
 230  0008              #line 230 "F:\2_Source\NW1951_NW2018_20SOP 上海佳点 BBU 控制器-V00\CODE\source\Interrupt.c"
 230  0008  0F63        	mov a,99
 230  0009  0200     E  	sub a,ra
 230  000A  3C0A        	sz c
 230  000B  2800     R  	jmp _L12
 231  000C              #line 231 "F:\2_Source\NW1951_NW2018_20SOP 上海佳点 BBU 控制器-V00\CODE\source\Interrupt.c"
 231  000C  1F00     E  	clr _R_time200ms[0]
 232  000D              #line 232 "F:\2_Source\NW1951_NW2018_20SOP 上海佳点 BBU 控制器-V00\CODE\source\Interrupt.c"
 232  000D  3000     E  	set _flagtime[0].1
 233  000E              #line 233 "F:\2_Source\NW1951_NW2018_20SOP 上海佳点 BBU 控制器-V00\CODE\source\Interrupt.c"
文件：Interrupt.c  编译器版本 HGASM 0202 页次5

 233  000E  3000     E  	set _flag3[0].2
 241  000F              #line 241 "F:\2_Source\NW1951_NW2018_20SOP 上海佳点 BBU 控制器-V00\CODE\source\Interrupt.c"
 241  000F  1400     E  	inca _R_time3s[0]
 241  0010  0080     E  	mov ra,a
 242  0011              #line 242 "F:\2_Source\NW1951_NW2018_20SOP 上海佳点 BBU 控制器-V00\CODE\source\Interrupt.c"
 242  0011  0F0E        	mov a,14
 242  0012  0200     E  	sub a,ra
 242  0013  380A        	snz c
 242  0014  2800     R  	jmp _L13
 241  0015              #line 241 "F:\2_Source\NW1951_NW2018_20SOP 上海佳点 BBU 控制器-V00\CODE\source\Interrupt.c"
 241  0015  0700     E  	mov a,ra
 241  0016  0080     E  	mov _R_time3s[0],a
 241  0017  2800     R  	jmp _L14
 241  0018              _L13:
 243  0018              #line 243 "F:\2_Source\NW1951_NW2018_20SOP 上海佳点 BBU 控制器-V00\CODE\source\Interrupt.c"
 243  0018  1F00     E  	clr _R_time3s[0]
 244  0019              #line 244 "F:\2_Source\NW1951_NW2018_20SOP 上海佳点 BBU 控制器-V00\CODE\source\Interrupt.c"
 244  0019  3000     E  	set _flagtime[0].3
 244  001A              _L14:
 249  001A              #line 249 "F:\2_Source\NW1951_NW2018_20SOP 上海佳点 BBU 控制器-V00\CODE\source\Interrupt.c"
 249  001A  3800     E  	snz _flag0[0].7
 249  001B  2800     R  	jmp _L16
 250  001C              #line 250 "F:\2_Source\NW1951_NW2018_20SOP 上海佳点 BBU 控制器-V00\CODE\source\Interrupt.c"
 250  001C  1400     E  	inca _R_time10s[0]
 250  001D  0080     E  	mov ra,a
 250  001E  0700     E  	mov a,ra
 250  001F  0080     E  	mov _R_time10s[0],a
 251  0020              #line 251 "F:\2_Source\NW1951_NW2018_20SOP 上海佳点 BBU 控制器-V00\CODE\source\Interrupt.c"
 251  0020  0F31        	mov a,49
 251  0021  0200     E  	sub a,ra
 251  0022  3C0A        	sz c
 251  0023  2800     R  	jmp _L16
 252  0024              #line 252 "F:\2_Source\NW1951_NW2018_20SOP 上海佳点 BBU 控制器-V00\CODE\source\Interrupt.c"
 252  0024  3000     E  	set _flag0[0].6
 252  0025              _L16:
 257  0025              #line 257 "F:\2_Source\NW1951_NW2018_20SOP 上海佳点 BBU 控制器-V00\CODE\source\Interrupt.c"
 257  0025  3800     E  	snz _flag2[0].4
 257  0026  2800     R  	jmp _L18
 258  0027              #line 258 "F:\2_Source\NW1951_NW2018_20SOP 上海佳点 BBU 控制器-V00\CODE\source\Interrupt.c"
 258  0027  1400     E  	inca _R_time20s[0]
 258  0028  0080     E  	mov ra,a
 258  0029  0700     E  	mov a,ra
 258  002A  0080     E  	mov _R_time20s[0],a
 259  002B              #line 259 "F:\2_Source\NW1951_NW2018_20SOP 上海佳点 BBU 控制器-V00\CODE\source\Interrupt.c"
 259  002B  0F63        	mov a,99
 259  002C  0200     E  	sub a,ra
 259  002D  3C0A        	sz c
 259  002E  2800     R  	jmp _L12
 260  002F              #line 260 "F:\2_Source\NW1951_NW2018_20SOP 上海佳点 BBU 控制器-V00\CODE\source\Interrupt.c"
 260  002F  1F00     E  	clr _R_time20s[0]
 261  0030              #line 261 "F:\2_Source\NW1951_NW2018_20SOP 上海佳点 BBU 控制器-V00\CODE\source\Interrupt.c"
 261  0030  3000     E  	set _flagtime[0].4
 262  0031              #line 262 "F:\2_Source\NW1951_NW2018_20SOP 上海佳点 BBU 控制器-V00\CODE\source\Interrupt.c"
 262  0031  0700     E  	mov a,_R_workmode[0]
 262  0032  0A03        	sub a,3
 262  0033  390A        	snz z
 262  0034  2800     R  	jmp _L12
 263  0035              #line 263 "F:\2_Source\NW1951_NW2018_20SOP 上海佳点 BBU 控制器-V00\CODE\source\Interrupt.c"
 263  0035  0F04        	mov a,4
 263  0036  0080     E  	mov _R_workmode[0],a
文件：Interrupt.c  编译器版本 HGASM 0202 页次6

 264  0037              #line 264 "F:\2_Source\NW1951_NW2018_20SOP 上海佳点 BBU 控制器-V00\CODE\source\Interrupt.c"
 264  0037  3000     E  	set _flag0[0].2
 265  0038              #line 265 "F:\2_Source\NW1951_NW2018_20SOP 上海佳点 BBU 控制器-V00\CODE\source\Interrupt.c"
 265  0038  3000     E  	set _flag2[0].3
 265  0039  2800     R  	jmp _L12
 265  003A              _L18:
 269  003A              #line 269 "F:\2_Source\NW1951_NW2018_20SOP 上海佳点 BBU 控制器-V00\CODE\source\Interrupt.c"
 269  003A  1F00     E  	clr _R_time20s[0]
 270  003B              #line 270 "F:\2_Source\NW1951_NW2018_20SOP 上海佳点 BBU 控制器-V00\CODE\source\Interrupt.c"
 270  003B  3400     E  	clr _flagtime[0].4
 270  003C              _L12:
 276  003C              #line 276 "F:\2_Source\NW1951_NW2018_20SOP 上海佳点 BBU 控制器-V00\CODE\source\Interrupt.c"
 276  003C  3800     E  	snz _flag3[0].5
 276  003D  2800     R  	jmp _L20
 277  003E              #line 277 "F:\2_Source\NW1951_NW2018_20SOP 上海佳点 BBU 控制器-V00\CODE\source\Interrupt.c"
 277  003E  0F01        	mov a,1
 277  003F  0300     E  	add a,_R_inttime1min[0]
 277  0040  0080     E  	mov rb,a
 277  0041  0F00        	mov a,0
 277  0042  1300     E  	adc a,_R_inttime1min[1]
 277  0043  0080     E  	mov rc,a
 277  0044  0700     E  	mov a,rb
 277  0045  0080     E  	mov _R_inttime1min[0],a
 277  0046  0700     E  	mov a,rc
 277  0047  0080     E  	mov _R_inttime1min[1],a
 278  0048              #line 278 "F:\2_Source\NW1951_NW2018_20SOP 上海佳点 BBU 控制器-V00\CODE\source\Interrupt.c"
 278  0048  0F2F        	mov a,47
 278  0049  0200     E  	sub a,rb
 278  004A  0F75        	mov a,117
 278  004B  1200     E  	sbc a,rc
 278  004C  3C0A        	sz c
 278  004D  2800     R  	jmp _L22
 279  004E              #line 279 "F:\2_Source\NW1951_NW2018_20SOP 上海佳点 BBU 控制器-V00\CODE\source\Interrupt.c"
 279  004E  1F00     E  	clr _R_inttime1min[0]
 279  004F  1F00     E  	clr _R_inttime1min[1]
 281  0050              #line 281 "F:\2_Source\NW1951_NW2018_20SOP 上海佳点 BBU 控制器-V00\CODE\source\Interrupt.c"
 281  0050  0F01        	mov a,1
 281  0051  0300     E  	add a,_R_intchargetime[0]
 281  0052  0080     E  	mov rb,a
 281  0053  0F00        	mov a,0
 281  0054  1300     E  	adc a,_R_intchargetime[1]
 281  0055  0080     E  	mov rc,a
 281  0056  0700     E  	mov a,rb
 281  0057  0080     E  	mov _R_intchargetime[0],a
 281  0058  0700     E  	mov a,rc
 281  0059  0080     E  	mov _R_intchargetime[1],a
 282  005A              #line 282 "F:\2_Source\NW1951_NW2018_20SOP 上海佳点 BBU 控制器-V00\CODE\source\Interrupt.c"
 282  005A  0700     E  	mov a,rb
 282  005B  0200     E  	sub a,_R_intsettime[0]
 282  005C  0700     E  	mov a,rc
 282  005D  1200     E  	sbc a,_R_intsettime[1]
 282  005E  380A        	snz c
 282  005F  2800     R  	jmp _L22
 283  0060              #line 283 "F:\2_Source\NW1951_NW2018_20SOP 上海佳点 BBU 控制器-V00\CODE\source\Interrupt.c"
 283  0060  1F00     E  	clr _R_intchargetime[0]
 283  0061  1F00     E  	clr _R_intchargetime[1]
 284  0062              #line 284 "F:\2_Source\NW1951_NW2018_20SOP 上海佳点 BBU 控制器-V00\CODE\source\Interrupt.c"
 284  0062  31A7        	set [39].3
 285  0063              #line 285 "F:\2_Source\NW1951_NW2018_20SOP 上海佳点 BBU 控制器-V00\CODE\source\Interrupt.c"
 285  0063  3000     E  	set _flag3[0].6
文件：Interrupt.c  编译器版本 HGASM 0202 页次7

 285  0064  2800     R  	jmp _L22
 285  0065              _L20:
 289  0065              #line 289 "F:\2_Source\NW1951_NW2018_20SOP 上海佳点 BBU 控制器-V00\CODE\source\Interrupt.c"
 289  0065  1F00     E  	clr _R_inttime1min[0]
 289  0066  1F00     E  	clr _R_inttime1min[1]
 290  0067              #line 290 "F:\2_Source\NW1951_NW2018_20SOP 上海佳点 BBU 控制器-V00\CODE\source\Interrupt.c"
 290  0067  1F00     E  	clr _R_intchargetime[0]
 290  0068  1F00     E  	clr _R_intchargetime[1]
 290  0069              _L22:
 293  0069              #line 293 "F:\2_Source\NW1951_NW2018_20SOP 上海佳点 BBU 控制器-V00\CODE\source\Interrupt.c"
 293  0069  3800     E  	snz _flag3[0].3
 293  006A  2800     R  	jmp _L10
 294  006B              #line 294 "F:\2_Source\NW1951_NW2018_20SOP 上海佳点 BBU 控制器-V00\CODE\source\Interrupt.c"
 294  006B  1400     E  	inca _R_time500ms[0]
 294  006C  0080     E  	mov ra,a
 294  006D  0700     E  	mov a,ra
 294  006E  0080     E  	mov _R_time500ms[0],a
 295  006F              #line 295 "F:\2_Source\NW1951_NW2018_20SOP 上海佳点 BBU 控制器-V00\CODE\source\Interrupt.c"
 295  006F  0FF9        	mov a,249
 295  0070  0200     E  	sub a,ra
 295  0071  3C0A        	sz c
 295  0072  2800     R  	jmp _L10
 296  0073              #line 296 "F:\2_Source\NW1951_NW2018_20SOP 上海佳点 BBU 控制器-V00\CODE\source\Interrupt.c"
 296  0073  1F00     E  	clr _R_time500ms[0]
 297  0074              #line 297 "F:\2_Source\NW1951_NW2018_20SOP 上海佳点 BBU 控制器-V00\CODE\source\Interrupt.c"
 297  0074  3000     E  	set _flagtime[0].2
 297  0075              _L10:
 297  0075  0700     E  	mov a,r2
 297  0076  008A        	mov status,a
 297  0077  0700     E  	mov a,r1
 297  0078  0004        	reti
 297  0079              _Interrupt_CTM0_CCRA endp
 297  0079              
 297  0079              #line 297 "F:\2_Source\NW1951_NW2018_20SOP 上海佳点 BBU 控制器-V00\CODE\source\Interrupt.c"
 297  0079              #pragma debug scope 1 1
 297  0079              ___mfi2 equ [29]
 297  0079              public _Interrupt_CTM1_CCRA
 297  0079              #pragma debug scope 14 1
 309  0079              #line 309 "F:\2_Source\NW1951_NW2018_20SOP 上海佳点 BBU 控制器-V00\CODE\source\Interrupt.c"
 309  0000              @Interrupt_CTM1_CCRA_code .section at 56 'code'
 309  0000              ifdef INTERRUPT_DELAY
 309  0000              	nop
 309  0000              endif
 309  0000  0080     E  	mov r1,a
 309  0001  070A        	mov a,status
 309  0002              ifndef INTERRUPT_DELAY
 309  0002  0080     E  	mov r2,a
 309  0003              endif
 309  0003  2800     R  	jmp _Interrupt_CTM1_CCRA
 309  0004              #pragma debug scope 1 1
 309  0004              @dummy56 endp
 309  0004              #pragma debug scope 15 1
 309  0000              _Interrupt_CTM1_CCRA .section 'code'
 309  0000              _Interrupt_CTM1_CCRA proc
 309  0000              ifdef INTERRUPT_DELAY
 309  0000              	mov r2,a
 309  0000              endif
 310  0000              #line 310 "F:\2_Source\NW1951_NW2018_20SOP 上海佳点 BBU 控制器-V00\CODE\source\Interrupt.c"
 310  0000  369D        	clr [29].5
 311  0001              #line 311 "F:\2_Source\NW1951_NW2018_20SOP 上海佳点 BBU 控制器-V00\CODE\source\Interrupt.c"
文件：Interrupt.c  编译器版本 HGASM 0202 页次8

 311  0001  361D        	clr [29].4
 312  0002              #line 312 "F:\2_Source\NW1951_NW2018_20SOP 上海佳点 BBU 控制器-V00\CODE\source\Interrupt.c"
 312  0002  371D        	clr [29].6
 312  0003  0700     E  	mov a,r2
 312  0004  008A        	mov status,a
 312  0005  0700     E  	mov a,r1
 312  0006  0004        	reti
 312  0007              _Interrupt_CTM1_CCRA endp
 312  0007              
 312  0007              #line 312 "F:\2_Source\NW1951_NW2018_20SOP 上海佳点 BBU 控制器-V00\CODE\source\Interrupt.c"
 312  0007              #pragma debug scope 1 1
 312  0007              ___mfi3 equ [30]
 312  0007              public _Interrupt_INT1_LVD
 312  0007              #pragma debug scope 16 1
 323  0007              #line 323 "F:\2_Source\NW1951_NW2018_20SOP 上海佳点 BBU 控制器-V00\CODE\source\Interrupt.c"
 323  0000              @Interrupt_INT1_LVD_code .section at 60 'code'
 323  0000              ifdef INTERRUPT_DELAY
 323  0000              	nop
 323  0000              endif
 323  0000  0080     E  	mov r1,a
 323  0001  070A        	mov a,status
 323  0002              ifndef INTERRUPT_DELAY
 323  0002  0080     E  	mov r2,a
 323  0003              endif
 323  0003  2800     R  	jmp _Interrupt_INT1_LVD
 323  0004              #pragma debug scope 1 1
 323  0004              @dummy60 endp
 323  0004              #pragma debug scope 17 1
 323  0000              _Interrupt_INT1_LVD .section 'code'
 323  0000              _Interrupt_INT1_LVD proc
 323  0000              ifdef INTERRUPT_DELAY
 323  0000              	mov r2,a
 323  0000              endif
 324  0000              #line 324 "F:\2_Source\NW1951_NW2018_20SOP 上海佳点 BBU 控制器-V00\CODE\source\Interrupt.c"
 324  0000  361E        	clr [30].4
 325  0001              #line 325 "F:\2_Source\NW1951_NW2018_20SOP 上海佳点 BBU 控制器-V00\CODE\source\Interrupt.c"
 325  0001  369E        	clr [30].5
 325  0002  0700     E  	mov a,r2
 325  0003  008A        	mov status,a
 325  0004  0700     E  	mov a,r1
 325  0005  0004        	reti
 325  0006              _Interrupt_INT1_LVD endp
 325  0006              
 325  0006              #line 325 "F:\2_Source\NW1951_NW2018_20SOP 上海佳点 BBU 控制器-V00\CODE\source\Interrupt.c"
 325  0006              #pragma debug scope 1 1
 325  0006              #pragma debug struct_end
 325  0006              #pragma debug struct_end
 325  0006              #pragma debug union_end
 325  0006              #pragma debug union_end
 325  0006              #pragma debug variable 43 1 ___mfi0 "__mfi0" 1
 325  0006              #pragma debug struct_end
 325  0006              #pragma debug struct_end
 325  0006              #pragma debug union_end
 325  0006              #pragma debug union_end
 325  0006              #pragma debug variable 45 1 ___mfi1 "__mfi1" 1
 325  0006              #pragma debug struct_end
 325  0006              #pragma debug struct_end
 325  0006              #pragma debug union_end
 325  0006              #pragma debug union_end
 325  0006              #pragma debug variable 47 1 ___mfi2 "__mfi2" 1
文件：Interrupt.c  编译器版本 HGASM 0202 页次9

 325  0006              #pragma debug struct_end
 325  0006              #pragma debug struct_end
 325  0006              #pragma debug union_end
 325  0006              #pragma debug union_end
 325  0006              #pragma debug variable 49 1 ___mfi3 "__mfi3" 1
 325  0006              #pragma debug struct_end
 325  0006              #pragma debug struct_end
 325  0006              #pragma debug union_end
 325  0006              #pragma debug union_end
 325  0006              #pragma debug variable 51 1 ___pc "__pc" 1
 325  0006              
 325  0006              ; output external variables
 325  0006              extern _R_time500ms:byte
 325  0006              extern _R_intsettime:byte
 325  0006              extern _R_intchargetime:byte
 325  0006              extern _R_inttime1min:byte
 325  0006              extern _R_workmode:byte
 325  0006              extern _R_time20s:byte
 325  0006              extern _flag2:byte
 325  0006              extern _R_time10s:byte
 325  0006              extern _flag0:byte
 325  0006              extern _R_time3s:byte
 325  0006              extern _flag3:byte
 325  0006              extern _R_time200ms:byte
 325  0006              extern _flagtime:byte
 325  0006              extern r1:byte
 325  0006              extern r2:byte
 325  0006              
 325  0006              ; 
 325  0006              ; Generated by holtek-gcc v3.18, Fri May 31 17:54:41 2019
 325  0006              ; Rebuild 828
 325  0006              ; end of file


        0 Errors, 0